(lp1
F7.4000000000000004
aF15
aF17.399999999999999
aF18.5
aF18.800000000000001
aF19.5
aF20.199999999999999
aF20.600000000000001
aF20.800000000000001
aF21.600000000000001
aF21.899999999999999
aF22.5
aF22.800000000000001
aF24.899999999999999
aF25.300000000000001
aF29.899999999999999
aF30
aF30.100000000000001
aF30.399999999999999
aF30.600000000000001
aF31.100000000000001
aF31.100000000000001
aF31.300000000000001
aF31.5
aF31.600000000000001
aF31.699999999999999
aF31.800000000000001
aF31.800000000000001
aF32.100000000000001
aF32.200000000000003
aF32.399999999999999
aF32.399999999999999
aF32.600000000000001
aF32.700000000000003
aF32.700000000000003
aF32.700000000000003
aF32.700000000000003
aF32.799999999999997
aF32.799999999999997
aF33
aF33.100000000000001
aF33.399999999999999
aF33.600000000000001
aF33.799999999999997
aF33.899999999999999
aF33.899999999999999
aF34
aF34.200000000000003
aF34.600000000000001
aF35.100000000000001
aF35.200000000000003
aF35.399999999999999
aF36.399999999999999
aF36.799999999999997
aF37.200000000000003
aF37.200000000000003
aF37.299999999999997
aF37.600000000000001
aF37.700000000000003
aF38
aF38
aF38.100000000000001
aF38.200000000000003
aF38.200000000000003
aF38.299999999999997
aF38.700000000000003
aF39.100000000000001
aF39.100000000000001
aF39.200000000000003
aF39.5
aF39.5
aF39.600000000000001
aF39.600000000000001
aF39.700000000000003
aF39.700000000000003
aF39.899999999999999
aF40
aF40.100000000000001
aF40.100000000000001
aF40.399999999999999
aF40.5
aF40.700000000000003
aF40.799999999999997
aF41
aF41.100000000000001
aF41.600000000000001
aF41.600000000000001
aF41.899999999999999
aF42
aF42.100000000000001
aF42.200000000000003
aF42.399999999999999
aF42.899999999999999
aF42.899999999999999
aF43
aF43.200000000000003
aF43.700000000000003
aF43.700000000000003
aF43.799999999999997
aF44.399999999999999
aF44.5
aF44.700000000000003
aF45
aF45.100000000000001
aF45.200000000000003
aF45.299999999999997
aF45.399999999999999
aF45.700000000000003
aF45.899999999999999
aF46.299999999999997
aF46.399999999999999
aF46.600000000000001
aF47
aF47
aF47.600000000000001
aF47.700000000000003
aF48
aF48
aF48.100000000000001
aF48.200000000000003
aF48.399999999999999
aF49.299999999999997
aF49.5
aF49.700000000000003
aF49.799999999999997
aF49.899999999999999
aF50
aF50.100000000000001
aF50.299999999999997
aF50.5
aF50.700000000000003
aF50.700000000000003
aF50.899999999999999
aF51.399999999999999
aF51.5
aF51.600000000000001
aF51.799999999999997
aF52.100000000000001
aF52.200000000000003
aF52.399999999999999
aF52.899999999999999
aF53.299999999999997
aF53.299999999999997
aF53.600000000000001
aF53.700000000000003
aF53.799999999999997
aF53.799999999999997
aF54
aF54.100000000000001
aF54.600000000000001
aF54.600000000000001
aF54.799999999999997
aF54.899999999999999
aF55
aF55.100000000000001
aF55.200000000000003
aF55.299999999999997
aF55.600000000000001
aF55.899999999999999
aF56
aF56
aF56
aF56
aF56.100000000000001
aF56.100000000000001
aF56.100000000000001
aF56.200000000000003
aF56.200000000000003
aF56.5
aF56.600000000000001
aF56.799999999999997
aF57.100000000000001
aF57.200000000000003
aF57.299999999999997
aF57.799999999999997
aF58
aF58
aF58.100000000000001
aF58.399999999999999
aF58.600000000000001
aF58.600000000000001
aF58.799999999999997
aF58.899999999999999
aF59.5
aF59.600000000000001
aF59.600000000000001
aF59.600000000000001
aF60
aF60.100000000000001
aF60.299999999999997
aF60.299999999999997
aF60.600000000000001
aF60.700000000000003
aF60.700000000000003
aF60.899999999999999
aF60.899999999999999
aF60.899999999999999
aF61.100000000000001
aF61.200000000000003
aF61.299999999999997
aF61.399999999999999
aF61.600000000000001
aF61.799999999999997
aF62.399999999999999
aF62.5
aF62.600000000000001
aF62.600000000000001
aF62.799999999999997
aF62.799999999999997
aF63.200000000000003
aF63.200000000000003
aF63.600000000000001
aF63.899999999999999
aF63.899999999999999
aF64
aF64
aF64
aF64.299999999999997
aF64.400000000000006
aF64.700000000000003
aF65.099999999999994
aF65.099999999999994
aF65.200000000000003
aF65.200000000000003
aF65.400000000000006
aF65.599999999999994
aF65.599999999999994
aF65.700000000000003
aF65.900000000000006
aF66
aF66
aF66.400000000000006
aF66.5
aF66.599999999999994
aF66.599999999999994
aF66.799999999999997
aF66.799999999999997
aF66.900000000000006
aF66.900000000000006
aF66.900000000000006
aF67
aF67.099999999999994
aF67.599999999999994
aF67.799999999999997
aF67.799999999999997
aF67.900000000000006
aF68
aF68
aF68
aF68.299999999999997
aF68.5
aF68.799999999999997
aF69
aF69.099999999999994
aF69.200000000000003
aF69.299999999999997
aF70
aF70.200000000000003
aF70.599999999999994
aF70.700000000000003
aF70.799999999999997
aF70.900000000000006
aF71.099999999999994
aF71.099999999999994
aF71.400000000000006
aF71.599999999999994
aF71.599999999999994
aF71.700000000000003
aF71.900000000000006
aF71.900000000000006
aF72.099999999999994
aF72.200000000000003
aF72.299999999999997
aF73.5
aF73.700000000000003
aF73.900000000000006
aF74
aF74
aF74
aF74.099999999999994
aF74.099999999999994
aF74.200000000000003
aF74.299999999999997
aF74.599999999999994
aF75
aF75
aF75
aF75
aF75
aF75.200000000000003
aF75.200000000000003
aF75.299999999999997
aF75.599999999999994
aF75.700000000000003
aF75.799999999999997
aF75.799999999999997
aF76
aF76.200000000000003
aF76.299999999999997
aF76.299999999999997
aF76.5
aF76.700000000000003
aF76.900000000000006
aF77
aF77
aF77.099999999999994
aF77.700000000000003
aF77.700000000000003
aF77.700000000000003
aF78
aF78.400000000000006
aF78.5
aF78.599999999999994
aF78.700000000000003
aF78.700000000000003
aF79.200000000000003
aF79.200000000000003
aF79.200000000000003
aF79.5
aF79.5
aF79.599999999999994
aF79.700000000000003
aF79.799999999999997
aF79.799999999999997
aF79.900000000000006
aF79.900000000000006
aF80
aF80
aF80.099999999999994
aF80.099999999999994
aF80.299999999999997
aF80.400000000000006
aF80.5
aF80.599999999999994
aF80.799999999999997
aF80.799999999999997
aF81.400000000000006
aF81.799999999999997
aF81.799999999999997
aF81.900000000000006
aF82.099999999999994
aF82.200000000000003
aF82.299999999999997
aF82.400000000000006
aF82.5
aF82.5
aF83
aF83
aF83.099999999999994
aF83.099999999999994
aF83.200000000000003
aF83.299999999999997
aF83.5
aF83.5
aF83.5
aF83.599999999999994
aF83.700000000000003
aF83.700000000000003
aF83.799999999999997
aF83.900000000000006
aF84
aF84.099999999999994
aF84.299999999999997
aF84.400000000000006
aF84.599999999999994
aF84.900000000000006
aF85.099999999999994
aF85.200000000000003
aF85.200000000000003
aF85.299999999999997
aF85.299999999999997
aF85.400000000000006
aF85.5
aF85.599999999999994
aF85.700000000000003
aF86.099999999999994
aF86.299999999999997
aF87.200000000000003
aF87.599999999999994
aF87.700000000000003
aF87.700000000000003
aF87.799999999999997
aF87.900000000000006
aF88
aF88
aF88.200000000000003
aF88.299999999999997
aF88.5
aF88.599999999999994
aF88.799999999999997
aF88.799999999999997
aF89
aF89.200000000000003
aF89.200000000000003
aF89.200000000000003
aF89.299999999999997
aF89.299999999999997
aF89.400000000000006
aF89.5
aF89.599999999999994
aF89.700000000000003
aF89.799999999999997
aF89.799999999999997
aF89.900000000000006
aF90.299999999999997
aF90.299999999999997
aF90.5
aF90.900000000000006
aF91
aF91
aF91
aF91.200000000000003
aF91.299999999999997
aF91.5
aF91.599999999999994
aF91.700000000000003
aF91.700000000000003
aF91.900000000000006
aF91.900000000000006
aF92.200000000000003
aF92.5
aF92.700000000000003
aF93.200000000000003
aF93.299999999999997
aF93.5
aF93.700000000000003
aF93.900000000000006
aF93.900000000000006
aF93.900000000000006
aF94
aF94
aF94
aF94.099999999999994
aF94.799999999999997
aF95.099999999999994
aF95.099999999999994
aF95.299999999999997
aF95.400000000000006
aF95.400000000000006
aF95.799999999999997
aF95.799999999999997
aF95.900000000000006
aF96.099999999999994
aF96.200000000000003
aF96.400000000000006
aF96.400000000000006
aF96.5
aF96.799999999999997
aF96.799999999999997
aF96.900000000000006
aF97.099999999999994
aF97.5
aF97.799999999999997
aF97.900000000000006
aF98
aF98
aF98
aF98.099999999999994
aF98.200000000000003
aF98.400000000000006
aF98.599999999999994
aF98.599999999999994
aF98.700000000000003
aF98.700000000000003
aF98.799999999999997
aF98.900000000000006
aF99
aF99.400000000000006
aF99.5
aF99.700000000000003
aF100
aF100.09999999999999
aF100.59999999999999
aF100.7
aF100.8
aF100.90000000000001
aF101
aF101.09999999999999
aF101.8
aF101.90000000000001
aF102.3
aF102.40000000000001
aF102.59999999999999
aF102.7
aF102.8
aF102.90000000000001
aF103.09999999999999
aF103.8
aF103.8
aF103.90000000000001
aF104.3
aF104.7
aF104.7
aF104.7
aF104.8
aF104.8
aF105.09999999999999
aF105.2
aF105.3
aF105.3
aF106
aF106.09999999999999
aF106.09999999999999
aF106.2
aF106.3
aF106.40000000000001
aF106.59999999999999
aF106.8
aF106.8
aF107.09999999999999
aF107.09999999999999
aF107.7
aF107.8
aF107.8
aF107.90000000000001
aF108.2
aF108.40000000000001
aF108.5
aF108.5
aF108.59999999999999
aF108.59999999999999
aF108.90000000000001
aF109.3
aF109.59999999999999
aF109.90000000000001
aF109.90000000000001
aF110.5
aF111.2
aF111.2
aF111.3
aF111.40000000000001
aF111.5
aF111.59999999999999
aF111.90000000000001
aF111.90000000000001
aF112.59999999999999
aF112.7
aF112.8
aF113.09999999999999
aF113.2
aF113.3
aF113.90000000000001
aF114
aF114.09999999999999
aF114.09999999999999
aF114.5
aF114.5
aF114.59999999999999
aF114.8
aF115.5
aF115.59999999999999
aF115.7
aF116.09999999999999
aF116.2
aF116.3
aF116.3
aF116.5
aF116.90000000000001
aF116.90000000000001
aF116.90000000000001
aF117
aF117
aF117
aF117.5
aF118.3
aF118.40000000000001
aF118.7
aF118.90000000000001
aF119
aF119
aF119.40000000000001
aF119.5
aF119.90000000000001
aF120
aF120.2
aF120.40000000000001
aF120.5
aF120.7
aF120.8
aF120.90000000000001
aF121
aF121.3
aF121.40000000000001
aF122.3
aF122.3
aF122.7
aF122.8
aF122.90000000000001
aF123
aF123.2
aF123.3
aF123.5
aF123.7
aF123.7
aF123.8
aF123.90000000000001
aF124
aF124.09999999999999
aF124.2
aF124.90000000000001
aF125
aF125.09999999999999
aF125.09999999999999
aF125.3
aF125.7
aF126.2
aF126.90000000000001
aF127.09999999999999
aF127.09999999999999
aF127.2
aF127.5
aF128.40000000000001
aF128.69999999999999
aF129
aF129
aF129
aF129.30000000000001
aF129.40000000000001
aF129.5
aF129.59999999999999
aF129.90000000000001
aF129.90000000000001
aF130.09999999999999
aF130.19999999999999
aF131
aF131
aF131.09999999999999
aF131.19999999999999
aF131.30000000000001
aF131.5
aF131.80000000000001
aF132.09999999999999
aF132.40000000000001
aF132.69999999999999
aF132.80000000000001
aF133.19999999999999
aF133.19999999999999
aF133.30000000000001
aF133.5
aF133.69999999999999
aF133.69999999999999
aF133.90000000000001
aF133.90000000000001
aF135
aF135.59999999999999
aF135.59999999999999
aF135.69999999999999
aF135.80000000000001
aF135.80000000000001
aF136
aF136.19999999999999
aF137.09999999999999
aF137.09999999999999
aF137.30000000000001
aF137.30000000000001
aF137.40000000000001
aF137.90000000000001
aF138
aF138.19999999999999
aF138.40000000000001
aF138.40000000000001
aF138.5
aF138.5
aF138.69999999999999
aF138.69999999999999
aF138.69999999999999
aF138.80000000000001
aF138.90000000000001
aF138.90000000000001
aF139.30000000000001
aF139.5
aF139.69999999999999
aF139.69999999999999
aF140
aF140.5
aF140.69999999999999
aF140.69999999999999
aF140.80000000000001
aF140.80000000000001
aF141
aF141.40000000000001
aF141.5
aF141.59999999999999
aF142
aF142.09999999999999
aF142.19999999999999
aF142.40000000000001
aF142.5
aF142.5
aF142.69999999999999
aF142.90000000000001
aF142.90000000000001
aF143
aF143.09999999999999
aF143.40000000000001
aF143.5
aF143.59999999999999
aF144.19999999999999
aF145
aF145.09999999999999
aF145.5
aF146.19999999999999
aF146.30000000000001
aF146.40000000000001
aF146.5
aF146.69999999999999
aF146.69999999999999
aF146.80000000000001
aF146.80000000000001
aF146.90000000000001
aF146.90000000000001
aF147.09999999999999
aF147.40000000000001
aF147.59999999999999
aF147.69999999999999
aF148.09999999999999
aF148.19999999999999
aF148.5
aF148.69999999999999
aF148.90000000000001
aF149.40000000000001
aF150
aF150.19999999999999
aF150.5
aF150.5
aF150.90000000000001
aF151.5
aF151.69999999999999
aF151.80000000000001
aF152
aF152.19999999999999
aF152.90000000000001
aF153
aF153.09999999999999
aF153.30000000000001
aF154.5
aF154.59999999999999
aF154.59999999999999
aF154.69999999999999
aF154.80000000000001
aF155.30000000000001
aF155.69999999999999
aF155.80000000000001
aF155.90000000000001
aF156
aF156
aF156.40000000000001
aF156.5
aF156.80000000000001
aF157.19999999999999
aF157.5
aF157.5
aF157.59999999999999
aF158
aF158.09999999999999
aF158.5
aF159.30000000000001
aF159.80000000000001
aF160.5
aF161.19999999999999
aF161.5
aF161.5
aF161.90000000000001
aF162.40000000000001
aF163
aF163.80000000000001
aF163.90000000000001
aF163.90000000000001
aF164.59999999999999
aF164.80000000000001
aF164.90000000000001
aF165.5
aF165.80000000000001
aF166.09999999999999
aF166.5
aF166.59999999999999
aF167
aF167
aF167
aF167.5
aF167.69999999999999
aF167.80000000000001
aF167.80000000000001
aF167.90000000000001
aF168.19999999999999
aF168.5
aF168.59999999999999
aF169.5
aF169.5
aF169.59999999999999
aF169.59999999999999
aF170.59999999999999
aF170.80000000000001
aF170.80000000000001
aF170.90000000000001
aF171
aF171.09999999999999
aF171.30000000000001
aF171.69999999999999
aF172
aF172.09999999999999
aF172.59999999999999
aF173
aF173.19999999999999
aF173.80000000000001
aF173.90000000000001
aF174
aF174
aF174.19999999999999
aF174.5
aF174.80000000000001
aF174.80000000000001
aF175.09999999999999
aF175.19999999999999
aF176.09999999999999
aF176.09999999999999
aF176.40000000000001
aF176.90000000000001
aF177.09999999999999
aF177.80000000000001
aF177.90000000000001
aF178.09999999999999
aF178.09999999999999
aF178.5
aF178.69999999999999
aF178.90000000000001
aF178.90000000000001
aF179
aF179
aF179.09999999999999
aF179.09999999999999
aF179.19999999999999
aF179.30000000000001
aF179.40000000000001
aF179.40000000000001
aF179.40000000000001
aF179.59999999999999
aF179.69999999999999
aF179.69999999999999
aF180.80000000000001
aF181.19999999999999
aF181.30000000000001
aF181.69999999999999
aF181.80000000000001
aF181.80000000000001
aF182.09999999999999
aF182.09999999999999
aF182.30000000000001
aF182.69999999999999
aF183.30000000000001
aF183.5
aF184.09999999999999
aF184.69999999999999
aF184.80000000000001
aF185.30000000000001
aF185.40000000000001
aF185.5
aF185.90000000000001
aF186.19999999999999
aF186.19999999999999
aF186.30000000000001
aF186.5
aF186.59999999999999
aF186.69999999999999
aF188.19999999999999
aF188.30000000000001
aF188.69999999999999
aF189.40000000000001
aF189.80000000000001
aF189.90000000000001
aF190
aF190
aF190.09999999999999
aF190.19999999999999
aF190.40000000000001
aF190.5
aF190.69999999999999
aF190.80000000000001
aF191.09999999999999
aF191.59999999999999
aF191.59999999999999
aF191.69999999999999
aF192.09999999999999
aF192.30000000000001
aF192.80000000000001
aF193
aF193.59999999999999
aF193.69999999999999
aF193.80000000000001
aF193.90000000000001
aF194
aF194
aF194.30000000000001
aF194.59999999999999
aF194.59999999999999
aF194.80000000000001
aF194.90000000000001
aF195.19999999999999
aF195.19999999999999
aF195.69999999999999
aF195.80000000000001
aF196.40000000000001
aF196.5
aF196.69999999999999
aF196.90000000000001
aF197.5
aF198.40000000000001
aF198.59999999999999
aF199.40000000000001
aF199.40000000000001
aF199.5
aF199.80000000000001
aF199.90000000000001
aF200.09999999999999
aF200.09999999999999
aF200.40000000000001
aF200.5
aF200.69999999999999
aF200.69999999999999
aF200.90000000000001
aF201.19999999999999
aF202.09999999999999
aF202.30000000000001
aF204
aF204.19999999999999
aF205
aF205.19999999999999
aF205.40000000000001
aF205.5
aF206.09999999999999
aF206.19999999999999
aF206.19999999999999
aF206.30000000000001
aF206.30000000000001
aF206.80000000000001
aF207.5
aF207.59999999999999
aF208.09999999999999
aF208.19999999999999
aF209.40000000000001
aF209.80000000000001
aF209.90000000000001
aF210.09999999999999
aF210.19999999999999
aF210.30000000000001
aF210.30000000000001
aF210.5
aF210.59999999999999
aF211
aF211
aF211.30000000000001
aF211.40000000000001
aF211.5
aF211.80000000000001
aF212.09999999999999
aF212.09999999999999
aF212.19999999999999
aF212.40000000000001
aF212.5
aF212.80000000000001
aF212.80000000000001
aF213
aF213
aF213.40000000000001
aF213.59999999999999
aF213.59999999999999
aF214
aF214.09999999999999
aF214.19999999999999
aF214.19999999999999
aF214.40000000000001
aF214.40000000000001
aF214.59999999999999
aF214.80000000000001
aF214.80000000000001
aF214.90000000000001
aF215
aF215.09999999999999
aF215.19999999999999
aF215.30000000000001
aF215.40000000000001
aF215.5
aF216
aF216.19999999999999
aF216.19999999999999
aF216.30000000000001
aF216.5
aF216.5
aF216.80000000000001
aF217.09999999999999
aF217.09999999999999
aF217.19999999999999
aF217.80000000000001
aF217.80000000000001
aF218.5
aF218.59999999999999
aF218.80000000000001
aF218.80000000000001
aF218.90000000000001
aF219.19999999999999
aF219.59999999999999
aF219.80000000000001
aF220.19999999999999
aF220.19999999999999
aF220.59999999999999
aF221.19999999999999
aF221.19999999999999
aF221.30000000000001
aF221.5
aF221.59999999999999
aF221.69999999999999
aF221.69999999999999
aF221.80000000000001
aF221.90000000000001
aF222
aF222.19999999999999
aF222.19999999999999
aF222.30000000000001
aF222.30000000000001
aF222.40000000000001
aF222.5
aF222.59999999999999
aF222.59999999999999
aF222.59999999999999
aF222.69999999999999
aF222.80000000000001
aF222.90000000000001
aF223
aF223
aF224
aF224.19999999999999
aF224.19999999999999
aF224.40000000000001
aF224.5
aF224.80000000000001
aF224.80000000000001
aF226.19999999999999
aF226.5
aF226.5
aF226.80000000000001
aF227.19999999999999
aF227.30000000000001
aF227.5
aF228
aF228
aF228.09999999999999
aF228.19999999999999
aF228.30000000000001
aF228.5
aF228.80000000000001
aF229
aF230
aF230.09999999999999
aF230.30000000000001
aF231
aF231.80000000000001
aF231.80000000000001
aF231.80000000000001
aF232
aF232.09999999999999
aF232.19999999999999
aF232.80000000000001
aF232.90000000000001
aF233
aF233.5
aF233.59999999999999
aF234.09999999999999
aF234.19999999999999
aF234.59999999999999
aF234.59999999999999
aF234.59999999999999
aF234.69999999999999
aF235
aF235.09999999999999
aF235.19999999999999
aF235.40000000000001
aF235.69999999999999
aF235.90000000000001
aF235.90000000000001
aF236
aF236.69999999999999
aF236.69999999999999
aF236.80000000000001
aF237.5
aF237.5
aF237.80000000000001
aF237.90000000000001
aF238
aF238.19999999999999
aF238.40000000000001
aF238.5
aF238.69999999999999
aF238.69999999999999
aF238.90000000000001
aF239
aF239
aF239.40000000000001
aF240
aF240.09999999999999
aF240.30000000000001
aF240.40000000000001
aF240.69999999999999
aF240.90000000000001
aF240.90000000000001
aF241
aF241.09999999999999
aF241.19999999999999
aF241.19999999999999
aF241.30000000000001
aF241.40000000000001
aF241.40000000000001
aF241.59999999999999
aF241.90000000000001
aF242
aF242.09999999999999
aF242.19999999999999
aF242.30000000000001
aF242.40000000000001
aF242.40000000000001
aF242.5
aF242.59999999999999
aF242.80000000000001
aF242.80000000000001
aF242.90000000000001
aF243
aF243.09999999999999
aF243.19999999999999
aF243.30000000000001
aF243.30000000000001
aF243.69999999999999
aF243.90000000000001
aF244
aF244
aF244.09999999999999
aF244.09999999999999
aF244.19999999999999
aF244.59999999999999
aF244.69999999999999
aF244.80000000000001
aF245.59999999999999
aF245.59999999999999
aF245.69999999999999
aF245.80000000000001
aF245.90000000000001
aF245.90000000000001
aF246
aF246
aF246.09999999999999
aF246.09999999999999
aF246.5
aF246.5
aF246.59999999999999
aF247.19999999999999
aF247.19999999999999
aF247.40000000000001
aF247.40000000000001
aF247.5
aF247.59999999999999
aF247.69999999999999
aF247.69999999999999
aF247.80000000000001
aF247.80000000000001
aF247.80000000000001
aF247.80000000000001
aF248.69999999999999
aF248.69999999999999
aF249.5
aF249.59999999999999
aF249.59999999999999
aF249.59999999999999
aF250
aF250
aF250.19999999999999
aF251.09999999999999
aF251.30000000000001
aF251.40000000000001
aF251.40000000000001
aF251.5
aF251.59999999999999
aF251.90000000000001
aF252.09999999999999
aF252.30000000000001
aF252.5
aF252.5
aF252.80000000000001
aF253
aF253.19999999999999
aF253.80000000000001
aF254.09999999999999
aF254.30000000000001
aF254.40000000000001
aF254.5
aF254.59999999999999
aF254.69999999999999
aF255.19999999999999
aF255.30000000000001
aF255.59999999999999
aF255.69999999999999
aF255.90000000000001
aF256
aF256.30000000000001
aF256.30000000000001
aF256.30000000000001
aF256.5
aF256.69999999999999
aF256.69999999999999
aF256.69999999999999
aF256.80000000000001
aF256.89999999999998
aF257
aF257.19999999999999
aF257.39999999999998
aF257.5
aF257.89999999999998
aF258.10000000000002
aF258.10000000000002
aF258.10000000000002
aF258.30000000000001
aF258.69999999999999
aF259.10000000000002
aF259.60000000000002
aF259.69999999999999
aF260.19999999999999
aF260.5
aF260.60000000000002
aF260.69999999999999
aF260.89999999999998
aF261.19999999999999
aF261.30000000000001
aF261.30000000000001
aF261.30000000000001
aF261.30000000000001
aF261.69999999999999
aF261.80000000000001
aF262.60000000000002
aF262.69999999999999
aF263.19999999999999
aF263.5
aF263.5
aF263.60000000000002
aF263.60000000000002
aF263.80000000000001
aF264.10000000000002
aF264.10000000000002
aF265
aF265.10000000000002
aF265.5
aF266.19999999999999
aF266.19999999999999
aF266.30000000000001
aF266.69999999999999
aF266.89999999999998
aF267.19999999999999
aF267.30000000000001
aF267.60000000000002
aF267.89999999999998
aF268.30000000000001
aF268.30000000000001
aF268.39999999999998
aF268.39999999999998
aF268.5
aF269
aF269.30000000000001
aF269.30000000000001
aF269.89999999999998
aF270.5
aF270.80000000000001
aF271.19999999999999
aF271.30000000000001
aF271.5
aF271.60000000000002
aF271.89999999999998
aF272.10000000000002
aF272.19999999999999
aF272.5
aF272.89999999999998
aF272.89999999999998
aF273.10000000000002
aF273.19999999999999
aF273.30000000000001
aF273.39999999999998
aF273.5
aF273.5
aF273.5
aF273.60000000000002
aF273.80000000000001
aF274
aF274.39999999999998
aF274.5
aF274.69999999999999
aF274.80000000000001
aF274.80000000000001
aF275.19999999999999
aF275.30000000000001
aF275.69999999999999
aF275.89999999999998
aF276
aF276
aF276
aF276.19999999999999
aF276.30000000000001
aF276.30000000000001
aF276.60000000000002
aF276.60000000000002
aF276.69999999999999
aF277.19999999999999
aF277.39999999999998
aF277.60000000000002
aF278.30000000000001
aF278.39999999999998
aF278.39999999999998
aF278.5
aF278.5
aF278.5
aF278.69999999999999
aF279
aF279.19999999999999
aF279.30000000000001
aF279.60000000000002
aF279.69999999999999
aF279.89999999999998
aF280.30000000000001
aF280.39999999999998
aF280.39999999999998
aF280.60000000000002
aF280.69999999999999
aF280.69999999999999
aF280.69999999999999
aF280.80000000000001
aF280.80000000000001
aF280.89999999999998
aF281.19999999999999
aF281.19999999999999
aF281.5
aF281.5
aF281.89999999999998
aF282.10000000000002
aF282.10000000000002
aF282.30000000000001
aF282.30000000000001
aF282.30000000000001
aF282.39999999999998
aF282.60000000000002
aF282.60000000000002
aF282.69999999999999
aF282.89999999999998
aF283
aF283.10000000000002
aF283.30000000000001
aF283.5
aF283.5
aF283.69999999999999
aF283.69999999999999
aF284
aF284.39999999999998
aF284.39999999999998
aF284.60000000000002
aF284.80000000000001
aF284.89999999999998
aF285.10000000000002
aF285.39999999999998
aF285.69999999999999
aF285.69999999999999
aF285.80000000000001
aF285.80000000000001
aF285.89999999999998
aF286
aF286.10000000000002
aF286.5
aF286.5
aF286.5
aF286.60000000000002
aF286.80000000000001
aF286.89999999999998
aF287.39999999999998
aF287.5
aF287.5
aF287.60000000000002
aF287.69999999999999
aF287.69999999999999
aF287.89999999999998
aF288
aF288.10000000000002
aF288.19999999999999
aF288.19999999999999
aF288.19999999999999
aF288.19999999999999
aF288.30000000000001
aF288.39999999999998
aF288.39999999999998
aF288.69999999999999
aF288.69999999999999
aF288.80000000000001
aF288.89999999999998
aF289
aF289.10000000000002
aF289.19999999999999
aF289.39999999999998
aF289.60000000000002
aF289.69999999999999
aF289.80000000000001
aF289.80000000000001
aF290
aF290.10000000000002
aF290.19999999999999
aF290.39999999999998
aF290.5
aF290.60000000000002
aF290.60000000000002
aF290.80000000000001
aF290.80000000000001
aF291.30000000000001
aF291.30000000000001
aF291.5
aF291.5
aF291.60000000000002
aF291.89999999999998
aF291.89999999999998
aF292.10000000000002
aF292.19999999999999
aF292.39999999999998
aF292.69999999999999
aF292.69999999999999
aF292.69999999999999
aF292.80000000000001
aF293.10000000000002
aF293.30000000000001
aF293.30000000000001
aF293.5
aF293.80000000000001
aF293.80000000000001
aF294.10000000000002
aF294.19999999999999
aF294.39999999999998
aF294.60000000000002
aF294.89999999999998
aF295.39999999999998
aF295.39999999999998
aF295.5
aF295.69999999999999
aF296.10000000000002
aF296.89999999999998
aF296.89999999999998
aF297.30000000000001
aF297.69999999999999
aF297.89999999999998
aF297.89999999999998
aF297.89999999999998
aF298.30000000000001
aF298.5
aF298.60000000000002
aF299.30000000000001
aF299.30000000000001
aF299.60000000000002
aF299.80000000000001
aF300
aF300.10000000000002
aF300.39999999999998
aF300.39999999999998
aF300.39999999999998
aF300.39999999999998
aF300.80000000000001
aF301.10000000000002
aF301.5
aF301.60000000000002
aF302.19999999999999
aF302.19999999999999
aF302.39999999999998
aF303
aF303.10000000000002
aF303.30000000000001
aF303.30000000000001
aF303.60000000000002
aF303.80000000000001
aF304.10000000000002
aF305.39999999999998
aF305.39999999999998
aF305.89999999999998
aF306
aF306.60000000000002
aF306.69999999999999
aF307.19999999999999
aF307.39999999999998
aF307.39999999999998
aF307.5
aF307.69999999999999
aF307.89999999999998
aF307.89999999999998
aF308
aF308.19999999999999
aF308.19999999999999
aF308.39999999999998
aF308.5
aF308.80000000000001
aF309
aF309.19999999999999
aF309.30000000000001
aF309.39999999999998
aF309.39999999999998
aF309.5
aF309.89999999999998
aF309.89999999999998
aF310.10000000000002
aF310.19999999999999
aF310.30000000000001
aF310.5
aF310.89999999999998
aF311
aF311.19999999999999
aF311.39999999999998
aF312.5
aF312.5
aF312.5
aF312.60000000000002
aF312.69999999999999
aF313.10000000000002
aF313.19999999999999
aF313.30000000000001
aF313.5
aF313.89999999999998
aF314.5
aF314.69999999999999
aF315.10000000000002
aF315.10000000000002
aF315.10000000000002
aF315.30000000000001
aF315.39999999999998
aF315.39999999999998
aF316.10000000000002
aF316.19999999999999
aF316.30000000000001
aF316.5
aF316.89999999999998
aF317.10000000000002
aF318
aF318.10000000000002
aF318.30000000000001
aF318.60000000000002
aF319.10000000000002
aF319.19999999999999
aF319.69999999999999
aF320.10000000000002
aF320.69999999999999
aF320.69999999999999
aF320.80000000000001
aF320.89999999999998
aF321.19999999999999
aF321.60000000000002
aF321.69999999999999
aF321.80000000000001
aF322
aF322.10000000000002
aF322.19999999999999
aF322.19999999999999
aF322.30000000000001
aF322.39999999999998
aF322.39999999999998
aF322.69999999999999
aF323
aF323.69999999999999
aF323.80000000000001
aF323.89999999999998
aF324
aF324.19999999999999
aF324.19999999999999
aF324.19999999999999
aF324.39999999999998
aF324.60000000000002
aF324.89999999999998
aF325
aF325.19999999999999
aF325.39999999999998
aF325.5
aF325.60000000000002
aF325.69999999999999
aF325.80000000000001
aF325.80000000000001
aF325.80000000000001
aF325.89999999999998
aF326
aF326.19999999999999
aF326.39999999999998
aF326.69999999999999
aF326.69999999999999
aF326.89999999999998
aF327.10000000000002
aF327.19999999999999
aF327.5
aF327.5
aF327.80000000000001
aF327.89999999999998
aF328
aF328
aF328.10000000000002
aF328.39999999999998
aF328.5
aF328.5
aF328.69999999999999
aF328.80000000000001
aF328.89999999999998
aF329
aF329.10000000000002
aF329.19999999999999
aF329.69999999999999
aF329.69999999999999
aF329.80000000000001
aF330
aF330.10000000000002
aF330.19999999999999
aF330.19999999999999
aF330.39999999999998
aF330.39999999999998
aF330.39999999999998
aF330.60000000000002
aF330.69999999999999
aF330.80000000000001
aF331
aF331.5
aF331.60000000000002
aF331.60000000000002
aF331.69999999999999
aF331.69999999999999
aF331.69999999999999
aF331.80000000000001
aF331.80000000000001
aF331.89999999999998
aF332.10000000000002
aF332.19999999999999
aF332.19999999999999
aF332.60000000000002
aF332.60000000000002
aF332.69999999999999
aF333
aF333
aF333.30000000000001
aF333.5
aF333.80000000000001
aF333.89999999999998
aF334.19999999999999
aF334.30000000000001
aF334.39999999999998
aF334.5
aF334.60000000000002
aF334.69999999999999
aF334.89999999999998
aF335.5
aF335.69999999999999
aF336
aF336.30000000000001
aF336.30000000000001
aF336.60000000000002
aF336.89999999999998
aF337.10000000000002
aF337.10000000000002
aF337.19999999999999
aF337.30000000000001
aF337.5
aF337.60000000000002
aF337.69999999999999
aF337.69999999999999
aF337.80000000000001
aF337.89999999999998
aF338.10000000000002
aF338.19999999999999
aF338.30000000000001
aF338.5
aF338.5
aF338.5
aF338.5
aF338.60000000000002
aF338.80000000000001
aF338.80000000000001
aF339
aF339.10000000000002
aF339.10000000000002
aF339.10000000000002
aF339.30000000000001
aF339.89999999999998
aF340
aF340.19999999999999
aF340.30000000000001
aF340.30000000000001
aF340.39999999999998
aF340.39999999999998
aF340.5
aF340.5
aF340.60000000000002
aF340.69999999999999
aF341
aF341.10000000000002
aF341.30000000000001
aF342
aF342.10000000000002
aF342.19999999999999
aF342.30000000000001
aF342.30000000000001
aF342.39999999999998
aF342.5
aF342.60000000000002
aF342.69999999999999
aF342.80000000000001
aF342.89999999999998
aF342.89999999999998
aF343
aF343.19999999999999
aF343.19999999999999
aF343.39999999999998
aF343.5
aF343.69999999999999
aF343.69999999999999
aF343.69999999999999
aF343.89999999999998
aF344.10000000000002
aF344.30000000000001
aF344.39999999999998
aF344.39999999999998
aF344.60000000000002
aF344.69999999999999
aF345
aF345
aF345.19999999999999
aF345.30000000000001
aF345.39999999999998
aF345.60000000000002
aF345.60000000000002
aF345.80000000000001
aF345.80000000000001
aF345.80000000000001
aF346.10000000000002
aF346.10000000000002
aF346.39999999999998
aF346.69999999999999
aF346.80000000000001
aF346.89999999999998
aF347.10000000000002
aF347.30000000000001
aF347.39999999999998
aF347.39999999999998
aF347.69999999999999
aF347.80000000000001
aF347.89999999999998
aF348
aF348
aF348.30000000000001
aF348.30000000000001
aF348.39999999999998
aF348.5
aF348.5
aF348.5
aF348.60000000000002
aF348.69999999999999
aF348.89999999999998
aF348.89999999999998
aF349
aF349.10000000000002
aF349.10000000000002
aF349.19999999999999
aF349.39999999999998
aF349.5
aF349.69999999999999
aF349.89999999999998
aF350
aF350
aF350.10000000000002
aF350.19999999999999
aF350.19999999999999
aF350.30000000000001
aF350.39999999999998
aF350.39999999999998
aF350.39999999999998
aF350.60000000000002
aF350.69999999999999
aF350.69999999999999
aF350.69999999999999
aF350.80000000000001
aF350.89999999999998
aF350.89999999999998
aF350.89999999999998
aF351
aF351.10000000000002
aF351.19999999999999
aF351.30000000000001
aF351.39999999999998
aF351.39999999999998
aF351.69999999999999
aF351.80000000000001
aF351.89999999999998
aF351.89999999999998
aF352
aF352
aF352
aF352.10000000000002
aF352.19999999999999
aF352.19999999999999
aF352.30000000000001
aF352.30000000000001
aF352.39999999999998
aF352.39999999999998
aF352.5
aF352.5
aF352.60000000000002
aF352.69999999999999
aF352.80000000000001
aF352.80000000000001
aF352.89999999999998
aF352.89999999999998
aF353.10000000000002
aF353.19999999999999
aF353.19999999999999
aF353.69999999999999
aF353.69999999999999
aF353.80000000000001
aF353.89999999999998
aF353.89999999999998
aF353.89999999999998
aF354
aF354.10000000000002
aF354.89999999999998
aF355
aF355.10000000000002
aF355.30000000000001
aF355.39999999999998
aF355.60000000000002
aF355.69999999999999
aF355.80000000000001
aF355.89999999999998
aF356.30000000000001
aF356.5
aF356.60000000000002
aF356.60000000000002
aF356.69999999999999
aF356.80000000000001
aF356.89999999999998
aF356.89999999999998
aF357
aF357.10000000000002
aF357.19999999999999
aF357.30000000000001
aF357.39999999999998
aF357.60000000000002
aF357.69999999999999
aF357.69999999999999
aF357.69999999999999
aF357.80000000000001
aF357.89999999999998
aF357.89999999999998
aF357.89999999999998
aF358.10000000000002
aF358.10000000000002
aF358.30000000000001
aF358.30000000000001
aF358.30000000000001
aF358.39999999999998
aF358.5
aF358.60000000000002
aF358.69999999999999
aF358.80000000000001
aF358.89999999999998
aF359
aF359
aF359.10000000000002
aF359.19999999999999
aF359.19999999999999
aF359.19999999999999
aF359.30000000000001
aF359.30000000000001
aF359.30000000000001
aF359.39999999999998
aF359.5
aF359.5
aF359.60000000000002
aF359.60000000000002
aF360.10000000000002
aF360.19999999999999
aF360.30000000000001
aF360.30000000000001
aF360.39999999999998
aF360.5
aF360.5
aF360.5
aF360.5
aF360.60000000000002
aF360.80000000000001
aF360.80000000000001
aF360.80000000000001
aF360.89999999999998
aF360.89999999999998
aF361
aF361.10000000000002
aF361.19999999999999
aF361.30000000000001
aF361.39999999999998
aF361.5
aF361.5
aF361.60000000000002
aF361.60000000000002
aF361.60000000000002
aF361.60000000000002
aF361.60000000000002
aF361.80000000000001
aF361.80000000000001
aF361.89999999999998
aF362.10000000000002
aF362.19999999999999
aF362.30000000000001
aF362.39999999999998
aF362.60000000000002
aF362.60000000000002
aF362.60000000000002
aF362.60000000000002
aF362.69999999999999
aF362.80000000000001
aF362.89999999999998
aF363.10000000000002
aF363.19999999999999
aF363.30000000000001
aF363.5
aF363.60000000000002
aF363.80000000000001
aF363.80000000000001
aF363.80000000000001
aF363.89999999999998
aF364.39999999999998
aF364.39999999999998
aF364.39999999999998
aF364.39999999999998
aF364.39999999999998
aF364.5
aF364.69999999999999
aF364.80000000000001
aF364.80000000000001
aF364.89999999999998
aF364.89999999999998
aF364.89999999999998
aF365.10000000000002
aF365.19999999999999
aF365.30000000000001
aF365.80000000000001
aF366
aF366.10000000000002
aF366.19999999999999
aF366.19999999999999
aF366.30000000000001
aF366.39999999999998
aF366.60000000000002
aF366.60000000000002
aF367
aF367.10000000000002
aF367.30000000000001
aF367.39999999999998
aF367.5
aF367.5
aF367.60000000000002
aF367.69999999999999
aF367.80000000000001
aF367.80000000000001
aF368
aF368.10000000000002
aF368.10000000000002
aF368.19999999999999
aF368.30000000000001
aF368.5
aF368.60000000000002
aF368.69999999999999
aF368.69999999999999
aF368.80000000000001
aF369
aF369.10000000000002
aF369.10000000000002
aF369.19999999999999
aF369.19999999999999
aF369.39999999999998
aF369.60000000000002
aF369.69999999999999
aF369.69999999999999
aF369.69999999999999
aF369.80000000000001
aF369.80000000000001
aF369.80000000000001
aF369.89999999999998
aF369.89999999999998
aF370
aF370.19999999999999
aF370.19999999999999
aF370.19999999999999
aF370.19999999999999
aF370.5
aF370.60000000000002
aF370.69999999999999
aF370.80000000000001
aF370.89999999999998
aF371
aF371
aF371.10000000000002
aF371.10000000000002
aF371.19999999999999
aF371.19999999999999
aF371.19999999999999
aF371.19999999999999
aF371.30000000000001
aF371.80000000000001
aF371.89999999999998
aF371.89999999999998
aF371.89999999999998
aF372.19999999999999
aF372.19999999999999
aF372.39999999999998
aF372.69999999999999
aF372.69999999999999
aF372.80000000000001
aF372.80000000000001
aF372.80000000000001
aF372.89999999999998
aF373
aF373
aF373
aF373.10000000000002
aF373.39999999999998
aF373.39999999999998
aF373.69999999999999
aF373.80000000000001
aF374
aF374.10000000000002
aF374.30000000000001
aF374.5
aF374.5
aF374.60000000000002
aF374.69999999999999
aF374.89999999999998
aF375
aF375.10000000000002
aF375.10000000000002
aF375.30000000000001
aF375.39999999999998
aF375.5
aF375.60000000000002
aF376
aF376
aF376.10000000000002
aF376.19999999999999
aF376.39999999999998
aF376.5
aF376.60000000000002
aF376.69999999999999
aF376.69999999999999
aF376.80000000000001
aF376.89999999999998
aF377.10000000000002
aF377.19999999999999
aF377.39999999999998
aF377.39999999999998
aF377.39999999999998
aF377.5
aF377.69999999999999
aF377.80000000000001
aF377.89999999999998
aF377.89999999999998
aF377.89999999999998
aF378.10000000000002
aF378.10000000000002
aF378.10000000000002
aF378.19999999999999
aF378.30000000000001
aF378.39999999999998
aF378.39999999999998
aF378.39999999999998
aF378.60000000000002
aF378.60000000000002
aF378.80000000000001
aF379
aF379.19999999999999
aF379.19999999999999
aF379.30000000000001
aF379.30000000000001
aF379.39999999999998
aF379.39999999999998
aF379.60000000000002
aF379.60000000000002
aF379.60000000000002
aF379.60000000000002
aF379.69999999999999
aF379.69999999999999
aF379.89999999999998
aF379.89999999999998
aF380
aF380.30000000000001
aF380.30000000000001
aF380.30000000000001
aF380.39999999999998
aF380.5
aF380.5
aF380.60000000000002
aF380.69999999999999
aF380.80000000000001
aF381.10000000000002
aF381.19999999999999
aF381.19999999999999
aF381.30000000000001
aF381.30000000000001
aF381.30000000000001
aF381.39999999999998
aF381.5
aF381.60000000000002
aF381.69999999999999
aF381.89999999999998
aF382
aF382
aF382
aF382.10000000000002
aF382.19999999999999
aF382.19999999999999
aF382.30000000000001
aF382.39999999999998
aF382.60000000000002
aF382.69999999999999
aF382.69999999999999
aF382.89999999999998
aF382.89999999999998
aF383.30000000000001
aF383.39999999999998
aF383.5
aF383.5
aF383.60000000000002
aF383.80000000000001
aF383.80000000000001
aF384
aF384
aF384.19999999999999
aF384.19999999999999
aF384.30000000000001
aF384.30000000000001
aF384.30000000000001
aF384.5
aF384.5
aF384.5
aF384.5
aF384.60000000000002
aF384.69999999999999
aF384.80000000000001
aF384.89999999999998
aF385
aF385
aF385.10000000000002
aF385.10000000000002
aF385.10000000000002
aF385.10000000000002
aF385.30000000000001
aF385.30000000000001
aF385.39999999999998
aF385.5
aF385.60000000000002
aF385.80000000000001
aF385.80000000000001
aF385.89999999999998
aF385.89999999999998
aF386.30000000000001
aF386.30000000000001
aF386.39999999999998
aF386.60000000000002
aF386.89999999999998
aF387
aF387.10000000000002
aF387.30000000000001
aF387.30000000000001
aF387.30000000000001
aF387.5
aF387.5
aF387.5
aF387.5
aF387.69999999999999
aF388
aF388.10000000000002
aF388.10000000000002
aF388.10000000000002
aF388.19999999999999
aF388.19999999999999
aF388.30000000000001
aF388.60000000000002
aF388.69999999999999
aF388.80000000000001
aF389
aF389
aF389.10000000000002
aF389.10000000000002
aF389.10000000000002
aF389.19999999999999
aF389.19999999999999
aF389.30000000000001
aF389.30000000000001
aF389.39999999999998
aF389.39999999999998
aF389.80000000000001
aF389.89999999999998
aF390.10000000000002
aF390.19999999999999
aF390.69999999999999
aF391
aF391
aF391
aF391.19999999999999
aF391.19999999999999
aF391.30000000000001
aF391.39999999999998
aF391.39999999999998
aF391.5
aF391.89999999999998
aF391.89999999999998
aF392
aF392
aF392.10000000000002
aF392.19999999999999
aF392.19999999999999
aF392.39999999999998
aF392.39999999999998
aF392.69999999999999
aF392.80000000000001
aF392.80000000000001
aF392.80000000000001
aF392.89999999999998
aF393
aF393.10000000000002
aF393.10000000000002
aF393.10000000000002
aF393.19999999999999
aF393.39999999999998
aF393.39999999999998
aF393.5
aF393.5
aF393.60000000000002
aF393.69999999999999
aF393.80000000000001
aF394
aF394.10000000000002
aF394.19999999999999
aF394.19999999999999
aF394.19999999999999
aF394.30000000000001
aF394.5
aF394.60000000000002
aF394.60000000000002
aF394.80000000000001
aF394.80000000000001
aF394.89999999999998
aF395.10000000000002
aF395.10000000000002
aF395.19999999999999
aF395.19999999999999
aF395.69999999999999
aF396
aF396.10000000000002
aF396.19999999999999
aF396.19999999999999
aF396.39999999999998
aF396.5
aF396.60000000000002
aF396.69999999999999
aF396.69999999999999
aF396.89999999999998
aF397
aF397
aF397.10000000000002
aF397.10000000000002
aF397.19999999999999
aF397.60000000000002
aF397.60000000000002
aF397.60000000000002
aF397.69999999999999
aF397.80000000000001
aF397.80000000000001
aF397.89999999999998
aF398
aF398
aF398.19999999999999
aF398.30000000000001
aF398.30000000000001
aF398.39999999999998
aF398.60000000000002
aF398.60000000000002
aF398.69999999999999
aF398.69999999999999
aF398.80000000000001
aF398.80000000000001
aF398.89999999999998
aF398.89999999999998
aF398.89999999999998
aF399
aF399
aF399
aF399.10000000000002
aF399.10000000000002
aF399.30000000000001
aF399.39999999999998
aF399.39999999999998
aF399.5
aF399.69999999999999
aF399.69999999999999
aF400
aF400.10000000000002
aF400.19999999999999
aF400.19999999999999
aF400.19999999999999
aF400.30000000000001
aF400.30000000000001
aF400.39999999999998
aF400.39999999999998
aF400.5
aF400.5
aF400.60000000000002
aF400.60000000000002
aF400.69999999999999
aF400.69999999999999
aF400.69999999999999
aF400.69999999999999
aF400.89999999999998
aF401
aF401.10000000000002
aF401.10000000000002
aF401.19999999999999
aF401.39999999999998
aF401.5
aF401.60000000000002
aF401.60000000000002
aF401.69999999999999
aF401.80000000000001
aF402
aF402.19999999999999
aF402.30000000000001
aF402.5
aF402.69999999999999
aF402.80000000000001
aF402.89999999999998
aF402.89999999999998
aF403
aF403.10000000000002
aF403.19999999999999
aF403.19999999999999
aF403.30000000000001
aF403.39999999999998
aF403.39999999999998
aF403.39999999999998
aF403.60000000000002
aF403.80000000000001
aF403.80000000000001
aF404
aF404
aF404
aF404
aF404.19999999999999
aF404.19999999999999
aF404.19999999999999
aF404.30000000000001
aF404.30000000000001
aF404.30000000000001
aF404.39999999999998
aF404.60000000000002
aF404.60000000000002
aF404.60000000000002
aF404.80000000000001
aF405.10000000000002
aF405.10000000000002
aF405.19999999999999
aF405.19999999999999
aF405.30000000000001
aF405.30000000000001
aF405.39999999999998
aF405.5
aF405.60000000000002
aF405.60000000000002
aF405.69999999999999
aF405.69999999999999
aF405.80000000000001
aF405.80000000000001
aF405.80000000000001
aF405.80000000000001
aF405.80000000000001
aF406
aF406
aF406.10000000000002
aF406.30000000000001
aF406.30000000000001
aF406.39999999999998
aF406.39999999999998
aF406.39999999999998
aF406.60000000000002
aF406.60000000000002
aF406.69999999999999
aF406.80000000000001
aF406.80000000000001
aF406.80000000000001
aF406.89999999999998
aF407
aF407.10000000000002
aF407.10000000000002
aF407.10000000000002
aF407.10000000000002
aF407.19999999999999
aF407.19999999999999
aF407.19999999999999
aF407.30000000000001
aF407.30000000000001
aF407.30000000000001
aF407.39999999999998
aF407.69999999999999
aF407.80000000000001
aF407.80000000000001
aF408
aF408.10000000000002
aF408.10000000000002
aF408.19999999999999
aF408.39999999999998
aF408.60000000000002
aF408.69999999999999
aF408.80000000000001
aF408.89999999999998
aF408.89999999999998
aF408.89999999999998
aF408.89999999999998
aF409
aF409.10000000000002
aF409.10000000000002
aF409.19999999999999
aF409.19999999999999
aF409.30000000000001
aF409.5
aF409.5
aF409.69999999999999
aF409.80000000000001
aF410
aF410
aF410.19999999999999
aF410.39999999999998
aF410.5
aF410.69999999999999
aF410.89999999999998
aF410.89999999999998
aF411
aF411.10000000000002
aF411.19999999999999
aF411.19999999999999
aF411.30000000000001
aF411.30000000000001
aF411.39999999999998
aF411.39999999999998
aF411.39999999999998
aF411.5
aF411.60000000000002
aF411.80000000000001
aF411.80000000000001
aF412
aF412.10000000000002
aF412.10000000000002
aF412.19999999999999
aF412.19999999999999
aF412.30000000000001
aF412.39999999999998
aF412.39999999999998
aF412.5
aF412.69999999999999
aF412.69999999999999
aF412.80000000000001
aF412.80000000000001
aF412.89999999999998
aF412.89999999999998
aF413
aF413.10000000000002
aF413.10000000000002
aF413.19999999999999
aF413.19999999999999
aF413.39999999999998
aF413.5
aF413.5
aF413.60000000000002
aF413.69999999999999
aF413.69999999999999
aF414
aF414.10000000000002
aF414.10000000000002
aF414.19999999999999
aF414.39999999999998
aF414.39999999999998
aF414.39999999999998
aF414.39999999999998
aF414.39999999999998
aF414.60000000000002
aF414.60000000000002
aF414.60000000000002
aF414.69999999999999
aF415
aF415.19999999999999
aF415.19999999999999
aF415.89999999999998
aF416.10000000000002
aF416.10000000000002
aF416.19999999999999
aF416.19999999999999
aF416.19999999999999
aF416.39999999999998
aF416.5
aF416.60000000000002
aF416.60000000000002
aF416.60000000000002
aF416.89999999999998
aF417.10000000000002
aF417.19999999999999
aF417.19999999999999
aF417.60000000000002
aF417.89999999999998
aF418
aF418.19999999999999
aF418.19999999999999
aF418.39999999999998
aF418.39999999999998
aF418.5
aF418.60000000000002
aF418.69999999999999
aF418.80000000000001
aF418.80000000000001
aF418.80000000000001
aF418.89999999999998
aF418.89999999999998
aF419
aF419.10000000000002
aF419.10000000000002
aF419.10000000000002
aF419.19999999999999
aF419.30000000000001
aF419.5
aF419.5
aF419.60000000000002
aF419.60000000000002
aF419.80000000000001
aF419.80000000000001
aF419.89999999999998
aF419.89999999999998
aF419.89999999999998
aF420.10000000000002
aF420.10000000000002
aF420.30000000000001
aF420.60000000000002
aF420.80000000000001
aF420.89999999999998
aF421.10000000000002
aF421.10000000000002
aF421.10000000000002
aF421.19999999999999
aF421.19999999999999
aF421.89999999999998
aF421.89999999999998
aF422
aF422
aF422
aF422
aF422
aF422.10000000000002
aF422.10000000000002
aF422.19999999999999
aF422.30000000000001
aF422.5
aF422.5
aF422.5
aF422.60000000000002
aF422.69999999999999
aF422.69999999999999
aF422.80000000000001
aF423
aF423
aF423.10000000000002
aF423.19999999999999
aF423.30000000000001
aF423.39999999999998
aF423.60000000000002
aF423.60000000000002
aF423.69999999999999
aF423.69999999999999
aF423.69999999999999
aF423.89999999999998
aF424
aF424.10000000000002
aF424.19999999999999
aF424.30000000000001
aF424.39999999999998
aF424.39999999999998
aF424.5
aF424.60000000000002
aF424.69999999999999
aF425
aF425.10000000000002
aF425.19999999999999
aF425.19999999999999
aF425.30000000000001
aF425.30000000000001
aF425.30000000000001
aF425.39999999999998
aF425.5
aF425.60000000000002
aF425.69999999999999
aF425.80000000000001
aF425.89999999999998
aF426.10000000000002
aF426.10000000000002
aF426.30000000000001
aF426.30000000000001
aF426.30000000000001
aF426.30000000000001
aF426.30000000000001
aF426.39999999999998
aF426.39999999999998
aF426.5
aF426.5
aF426.60000000000002
aF426.60000000000002
aF426.60000000000002
aF426.80000000000001
aF426.89999999999998
aF426.89999999999998
aF427
aF427
aF427.10000000000002
aF427.19999999999999
aF427.30000000000001
aF427.30000000000001
aF427.30000000000001
aF427.30000000000001
aF427.39999999999998
aF427.5
aF427.5
aF427.5
aF427.69999999999999
aF427.80000000000001
aF427.89999999999998
aF427.89999999999998
aF428
aF428.19999999999999
aF428.19999999999999
aF428.30000000000001
aF428.39999999999998
aF428.39999999999998
aF428.5
aF428.60000000000002
aF428.60000000000002
aF428.60000000000002
aF428.69999999999999
aF428.80000000000001
aF428.80000000000001
aF428.89999999999998
aF429
aF429.10000000000002
aF429.10000000000002
aF429.19999999999999
aF429.30000000000001
aF429.39999999999998
aF429.5
aF429.5
aF429.5
aF429.60000000000002
aF429.60000000000002
aF429.69999999999999
aF429.69999999999999
aF429.69999999999999
aF429.80000000000001
aF430
aF430.10000000000002
aF430.10000000000002
aF430.10000000000002
aF430.10000000000002
aF430.19999999999999
aF430.19999999999999
aF430.30000000000001
aF430.30000000000001
aF430.5
aF430.5
aF430.5
aF430.5
aF430.5
aF430.60000000000002
aF430.69999999999999
aF430.80000000000001
aF430.80000000000001
aF430.89999999999998
aF431.10000000000002
aF431.10000000000002
aF431.30000000000001
aF431.30000000000001
aF431.30000000000001
aF431.39999999999998
aF431.39999999999998
aF431.5
aF431.60000000000002
aF431.69999999999999
aF431.80000000000001
aF432
aF432.10000000000002
aF432.10000000000002
aF432.19999999999999
aF432.30000000000001
aF432.39999999999998
aF432.5
aF432.69999999999999
aF432.69999999999999
aF432.80000000000001
aF432.80000000000001
aF432.89999999999998
aF432.89999999999998
aF433
aF433
aF433
aF433.10000000000002
aF433.10000000000002
aF433.19999999999999
aF433.19999999999999
aF433.39999999999998
aF433.5
aF433.5
aF433.60000000000002
aF433.60000000000002
aF433.69999999999999
aF433.80000000000001
aF433.80000000000001
aF433.89999999999998
aF433.89999999999998
aF434.10000000000002
aF434.10000000000002
aF434.10000000000002
aF434.19999999999999
aF434.19999999999999
aF434.39999999999998
aF434.39999999999998
aF434.5
aF434.60000000000002
aF434.80000000000001
aF434.80000000000001
aF434.89999999999998
aF434.89999999999998
aF435
aF435.10000000000002
aF435.10000000000002
aF435.10000000000002
aF435.30000000000001
aF435.30000000000001
aF435.39999999999998
aF435.39999999999998
aF435.5
aF435.5
aF435.5
aF435.60000000000002
aF435.69999999999999
aF435.80000000000001
aF435.80000000000001
aF435.89999999999998
aF436
aF436
aF436.10000000000002
aF436.19999999999999
aF436.30000000000001
aF436.30000000000001
aF436.39999999999998
aF436.5
aF436.5
aF436.60000000000002
aF436.60000000000002
aF436.60000000000002
aF436.60000000000002
aF436.89999999999998
aF436.89999999999998
aF436.89999999999998
aF437
aF437.10000000000002
aF437.10000000000002
aF437.19999999999999
aF437.19999999999999
aF437.19999999999999
aF437.39999999999998
aF437.39999999999998
aF437.39999999999998
aF437.39999999999998
aF437.5
aF437.5
aF437.5
aF437.60000000000002
aF437.80000000000001
aF437.80000000000001
aF437.80000000000001
aF437.80000000000001
aF437.80000000000001
aF437.89999999999998
aF437.89999999999998
aF437.89999999999998
aF438
aF438
aF438
aF438
aF438.19999999999999
aF438.30000000000001
aF438.5
aF438.60000000000002
aF438.60000000000002
aF438.69999999999999
aF438.80000000000001
aF438.80000000000001
aF438.80000000000001
aF438.80000000000001
aF438.80000000000001
aF438.89999999999998
aF439.10000000000002
aF439.30000000000001
aF439.39999999999998
aF439.5
aF439.5
aF439.5
aF439.60000000000002
aF439.69999999999999
aF439.69999999999999
aF439.80000000000001
aF439.89999999999998
aF439.89999999999998
aF440
aF440
aF440.10000000000002
aF440.19999999999999
aF440.5
aF440.5
aF440.60000000000002
aF440.89999999999998
aF440.89999999999998
aF440.89999999999998
aF441.10000000000002
aF441.10000000000002
aF441.10000000000002
aF441.10000000000002
aF441.10000000000002
aF441.19999999999999
aF441.30000000000001
aF441.39999999999998
aF441.39999999999998
aF441.5
aF441.5
aF441.5
aF441.69999999999999
aF441.80000000000001
aF441.80000000000001
aF441.89999999999998
aF441.89999999999998
aF441.89999999999998
aF442
aF442
aF442
aF442.10000000000002
aF442.19999999999999
aF442.19999999999999
aF442.19999999999999
aF442.30000000000001
aF442.30000000000001
aF442.39999999999998
aF442.5
aF442.60000000000002
aF442.69999999999999
aF442.89999999999998
aF442.89999999999998
aF443
aF443
aF443.19999999999999
aF443.30000000000001
aF443.30000000000001
aF443.30000000000001
aF443.30000000000001
aF443.39999999999998
aF443.39999999999998
aF443.60000000000002
aF443.69999999999999
aF443.69999999999999
aF443.69999999999999
aF443.80000000000001
aF443.80000000000001
aF443.80000000000001
aF443.80000000000001
aF443.89999999999998
aF443.89999999999998
aF444
aF444.10000000000002
aF444.10000000000002
aF444.19999999999999
aF444.5
aF444.5
aF444.5
aF444.60000000000002
aF444.69999999999999
aF444.69999999999999
aF444.80000000000001
aF444.80000000000001
aF444.89999999999998
aF445
aF445
aF445
aF445
aF445.10000000000002
aF445.19999999999999
aF445.19999999999999
aF445.19999999999999
aF445.60000000000002
aF445.69999999999999
aF445.69999999999999
aF445.69999999999999
aF445.89999999999998
aF445.89999999999998
aF445.89999999999998
aF445.89999999999998
aF446.10000000000002
aF446.19999999999999
aF446.19999999999999
aF446.19999999999999
aF446.30000000000001
aF446.30000000000001
aF446.30000000000001
aF446.30000000000001
aF446.39999999999998
aF446.5
aF446.5
aF446.60000000000002
aF446.80000000000001
aF446.80000000000001
aF446.89999999999998
aF446.89999999999998
aF446.89999999999998
aF447
aF447
aF447.10000000000002
aF447.10000000000002
aF447.19999999999999
aF447.19999999999999
aF447.19999999999999
aF447.30000000000001
aF447.39999999999998
aF447.39999999999998
aF447.39999999999998
aF447.69999999999999
aF447.69999999999999
aF447.89999999999998
aF448
aF448.10000000000002
aF448.19999999999999
aF448.19999999999999
aF448.30000000000001
aF448.30000000000001
aF448.5
aF448.60000000000002
aF448.80000000000001
aF449
aF449
aF449.19999999999999
aF449.19999999999999
aF449.5
aF449.60000000000002
aF449.60000000000002
aF449.80000000000001
aF450.19999999999999
aF450.39999999999998
aF450.69999999999999
aF450.69999999999999
aF450.69999999999999
aF450.80000000000001
aF450.80000000000001
aF450.89999999999998
aF450.89999999999998
aF451
aF451.10000000000002
aF451.10000000000002
aF451.19999999999999
aF451.30000000000001
aF451.39999999999998
aF451.39999999999998
aF451.39999999999998
aF451.5
aF451.5
aF451.60000000000002
aF451.80000000000001
aF451.89999999999998
aF451.89999999999998
aF452
aF452
aF452.10000000000002
aF452.19999999999999
aF452.30000000000001
aF452.39999999999998
aF452.5
aF452.60000000000002
aF452.60000000000002
aF452.60000000000002
aF452.69999999999999
aF452.69999999999999
aF452.80000000000001
aF452.89999999999998
aF452.89999999999998
aF453
aF453.19999999999999
aF453.19999999999999
aF453.19999999999999
aF453.30000000000001
aF453.30000000000001
aF453.60000000000002
aF453.60000000000002
aF453.69999999999999
aF453.80000000000001
aF453.80000000000001
aF453.89999999999998
aF454
aF454.10000000000002
aF454.10000000000002
aF454.10000000000002
aF454.30000000000001
aF454.39999999999998
aF454.39999999999998
aF454.39999999999998
aF454.5
aF454.60000000000002
aF454.80000000000001
aF455
aF455
aF455.10000000000002
aF455.10000000000002
aF455.30000000000001
aF455.30000000000001
aF455.39999999999998
aF455.39999999999998
aF455.60000000000002
aF455.60000000000002
aF455.69999999999999
aF455.89999999999998
aF455.89999999999998
aF456
aF456
aF456
aF456.10000000000002
aF456.30000000000001
aF456.39999999999998
aF456.5
aF456.5
aF456.60000000000002
aF456.60000000000002
aF456.69999999999999
aF456.69999999999999
aF456.80000000000001
aF456.80000000000001
aF457.10000000000002
aF457.19999999999999
aF457.30000000000001
aF457.30000000000001
aF457.39999999999998
aF457.5
aF457.60000000000002
aF457.69999999999999
aF457.80000000000001
aF457.89999999999998
aF457.89999999999998
aF458.19999999999999
aF458.19999999999999
aF458.30000000000001
aF458.30000000000001
aF458.30000000000001
aF458.39999999999998
aF458.60000000000002
aF458.69999999999999
aF458.69999999999999
aF458.80000000000001
aF458.80000000000001
aF459
aF459.10000000000002
aF459.10000000000002
aF459.19999999999999
aF459.19999999999999
aF459.60000000000002
aF459.69999999999999
aF459.69999999999999
aF459.80000000000001
aF459.89999999999998
aF460.19999999999999
aF460.30000000000001
aF460.30000000000001
aF460.5
aF460.5
aF460.5
aF460.5
aF460.5
aF460.60000000000002
aF460.80000000000001
aF460.89999999999998
aF460.89999999999998
aF461
aF461
aF461
aF461.19999999999999
aF461.19999999999999
aF461.19999999999999
aF461.39999999999998
aF461.5
aF461.5
aF461.60000000000002
aF461.60000000000002
aF461.80000000000001
aF461.89999999999998
aF462.10000000000002
aF462.19999999999999
aF462.19999999999999
aF462.39999999999998
aF462.39999999999998
aF462.39999999999998
aF462.5
aF462.69999999999999
aF462.80000000000001
aF463
aF463.30000000000001
aF463.5
aF463.5
aF463.5
aF463.60000000000002
aF463.60000000000002
aF463.60000000000002
aF463.69999999999999
aF463.80000000000001
aF463.89999999999998
aF463.89999999999998
aF464
aF464.19999999999999
aF464.19999999999999
aF464.19999999999999
aF464.30000000000001
aF464.30000000000001
aF464.39999999999998
aF464.5
aF464.60000000000002
aF464.69999999999999
aF464.69999999999999
aF464.80000000000001
aF464.89999999999998
aF464.89999999999998
aF465.10000000000002
aF465.30000000000001
aF465.30000000000001
aF465.39999999999998
aF465.39999999999998
aF465.5
aF465.60000000000002
aF465.69999999999999
aF465.69999999999999
aF465.80000000000001
aF466
aF466
aF466.39999999999998
aF466.5
aF466.60000000000002
aF466.69999999999999
aF466.69999999999999
aF466.69999999999999
aF466.80000000000001
aF466.89999999999998
aF466.89999999999998
aF467
aF467
aF467.19999999999999
aF467.30000000000001
aF467.5
aF467.60000000000002
aF467.69999999999999
aF467.89999999999998
aF467.89999999999998
aF467.89999999999998
aF468.10000000000002
aF468.10000000000002
aF468.10000000000002
aF468.30000000000001
aF468.39999999999998
aF468.60000000000002
aF468.69999999999999
aF468.69999999999999
aF468.80000000000001
aF468.80000000000001
aF468.89999999999998
aF469
aF469.10000000000002
aF469.10000000000002
aF469.39999999999998
aF469.39999999999998
aF469.39999999999998
aF469.5
aF469.5
aF469.5
aF469.5
aF469.60000000000002
aF469.69999999999999
aF469.69999999999999
aF469.80000000000001
aF469.80000000000001
aF470.30000000000001
aF470.39999999999998
aF470.60000000000002
aF470.60000000000002
aF470.60000000000002
aF470.69999999999999
aF470.80000000000001
aF470.80000000000001
aF470.89999999999998
aF470.89999999999998
aF471
aF471
aF471.19999999999999
aF471.30000000000001
aF471.5
aF471.5
aF471.60000000000002
aF471.69999999999999
aF471.69999999999999
aF471.69999999999999
aF472
aF472.69999999999999
aF472.69999999999999
aF472.80000000000001
aF473
aF473
aF473.10000000000002
aF473.19999999999999
aF473.19999999999999
aF473.19999999999999
aF473.39999999999998
aF473.39999999999998
aF473.39999999999998
aF473.39999999999998
aF473.39999999999998
aF473.5
aF474
aF474
aF474
aF474
aF474.10000000000002
aF474.10000000000002
aF474.19999999999999
aF474.5
aF474.5
aF474.5
aF474.60000000000002
aF474.69999999999999
aF474.69999999999999
aF474.80000000000001
aF474.80000000000001
aF474.89999999999998
aF474.89999999999998
aF474.89999999999998
aF474.89999999999998
aF475.69999999999999
aF475.80000000000001
aF475.89999999999998
aF476
aF476.10000000000002
aF476.10000000000002
aF476.19999999999999
aF476.39999999999998
aF476.39999999999998
aF476.5
aF476.5
aF476.60000000000002
aF476.60000000000002
aF476.69999999999999
aF477
aF477
aF477.10000000000002
aF477.19999999999999
aF477.30000000000001
aF477.69999999999999
aF477.80000000000001
aF477.80000000000001
aF477.80000000000001
aF478
aF478.10000000000002
aF478.10000000000002
aF478.19999999999999
aF478.19999999999999
aF478.39999999999998
aF478.80000000000001
aF478.80000000000001
aF478.80000000000001
aF478.89999999999998
aF478.89999999999998
aF479
aF479
aF479.19999999999999
aF479.30000000000001
aF479.39999999999998
aF479.39999999999998
aF479.5
aF479.5
aF479.60000000000002
aF479.60000000000002
aF479.80000000000001
aF479.89999999999998
aF479.89999999999998
aF480.10000000000002
aF480.10000000000002
aF480.19999999999999
aF480.19999999999999
aF480.39999999999998
aF480.5
aF480.5
aF480.5
aF480.69999999999999
aF481.19999999999999
aF481.30000000000001
aF481.30000000000001
aF481.80000000000001
aF481.89999999999998
aF481.89999999999998
aF482.19999999999999
aF482.19999999999999
aF482.30000000000001
aF482.30000000000001
aF482.30000000000001
aF482.39999999999998
aF482.39999999999998
aF482.39999999999998
aF482.39999999999998
aF482.5
aF482.60000000000002
aF482.89999999999998
aF482.89999999999998
aF483
aF483
aF483.10000000000002
aF483.10000000000002
aF483.19999999999999
aF483.30000000000001
aF483.30000000000001
aF483.5
aF483.69999999999999
aF483.69999999999999
aF483.80000000000001
aF483.89999999999998
aF483.89999999999998
aF483.89999999999998
aF484.19999999999999
aF484.39999999999998
aF484.39999999999998
aF484.5
aF484.5
aF484.5
aF484.80000000000001
aF485
aF485.10000000000002
aF485.10000000000002
aF485.19999999999999
aF485.19999999999999
aF485.30000000000001
aF485.30000000000001
aF485.39999999999998
aF485.60000000000002
aF486.39999999999998
aF486.39999999999998
aF486.39999999999998
aF486.5
aF486.5
aF486.5
aF486.60000000000002
aF487.10000000000002
aF487.10000000000002
aF487.19999999999999
aF487.30000000000001
aF487.39999999999998
aF487.39999999999998
aF487.5
aF487.5
aF487.89999999999998
aF488
aF488.10000000000002
aF488.10000000000002
aF488.10000000000002
aF488.39999999999998
aF488.39999999999998
aF488.5
aF488.60000000000002
aF488.60000000000002
aF488.60000000000002
aF488.80000000000001
aF488.80000000000001
aF488.89999999999998
aF488.89999999999998
aF489.10000000000002
aF489.19999999999999
aF489.30000000000001
aF489.39999999999998
aF489.39999999999998
aF489.5
aF489.60000000000002
aF489.60000000000002
aF489.69999999999999
aF489.80000000000001
aF489.80000000000001
aF489.89999999999998
aF490.10000000000002
aF490.10000000000002
aF490.19999999999999
aF490.30000000000001
aF490.30000000000001
aF490.30000000000001
aF490.39999999999998
aF490.60000000000002
aF490.69999999999999
aF490.80000000000001
aF490.80000000000001
aF491
aF491.19999999999999
aF491.19999999999999
aF491.30000000000001
aF491.39999999999998
aF491.39999999999998
aF491.5
aF491.69999999999999
aF491.80000000000001
aF492
aF492
aF492.10000000000002
aF492.19999999999999
aF492.30000000000001
aF492.39999999999998
aF492.39999999999998
aF492.39999999999998
aF492.80000000000001
aF492.80000000000001
aF492.89999999999998
aF492.89999999999998
aF492.89999999999998
aF493
aF493.19999999999999
aF493.19999999999999
aF493.19999999999999
aF493.30000000000001
aF493.39999999999998
aF493.5
aF493.60000000000002
aF493.69999999999999
aF493.69999999999999
aF493.80000000000001
aF494
aF494.10000000000002
aF494.30000000000001
aF494.39999999999998
aF494.39999999999998
aF494.39999999999998
aF494.5
aF494.5
aF494.5
aF494.89999999999998
aF495
aF495.10000000000002
aF495.10000000000002
aF495.19999999999999
aF495.30000000000001
aF495.39999999999998
aF495.5
aF495.5
aF495.69999999999999
aF495.80000000000001
aF495.89999999999998
aF495.89999999999998
aF496
aF496.19999999999999
aF496.80000000000001
aF496.80000000000001
aF496.80000000000001
aF496.89999999999998
aF496.89999999999998
aF497
aF497
aF497
aF497.19999999999999
aF497.30000000000001
aF497.30000000000001
aF497.5
aF497.5
aF497.5
aF497.60000000000002
aF497.69999999999999
aF497.80000000000001
aF497.80000000000001
aF497.89999999999998
aF497.89999999999998
aF497.89999999999998
aF498
aF498.10000000000002
aF498.39999999999998
aF498.39999999999998
aF498.60000000000002
aF498.60000000000002
aF498.89999999999998
aF498.89999999999998
aF499
aF499
aF499.10000000000002
aF499.30000000000001
aF499.39999999999998
aF499.39999999999998
aF499.5
aF499.5
aF499.5
aF499.60000000000002
aF499.60000000000002
aF499.69999999999999
aF499.89999999999998
aF499.89999999999998
aF500
aF500
aF500.19999999999999
aF500.19999999999999
aF500.30000000000001
aF500.39999999999998
aF500.39999999999998
aF500.5
aF500.5
aF500.5
aF500.5
aF500.60000000000002
aF500.80000000000001
aF500.80000000000001
aF500.89999999999998
aF501.10000000000002
aF501.10000000000002
aF501.10000000000002
aF501.19999999999999
aF501.19999999999999
aF501.30000000000001
aF501.39999999999998
aF501.39999999999998
aF501.69999999999999
aF501.80000000000001
aF501.89999999999998
aF502
aF502
aF502
aF502.19999999999999
aF502.19999999999999
aF502.30000000000001
aF502.39999999999998
aF502.60000000000002
aF502.60000000000002
aF502.60000000000002
aF502.69999999999999
aF502.80000000000001
aF502.89999999999998
aF502.89999999999998
aF502.89999999999998
aF502.89999999999998
aF503.10000000000002
aF503.10000000000002
aF503.19999999999999
aF503.19999999999999
aF503.19999999999999
aF503.30000000000001
aF503.30000000000001
aF503.39999999999998
aF503.39999999999998
aF503.39999999999998
aF503.5
aF503.60000000000002
aF503.60000000000002
aF503.69999999999999
aF503.69999999999999
aF503.89999999999998
aF503.89999999999998
aF504
aF504.10000000000002
aF504.10000000000002
aF504.30000000000001
aF504.5
aF504.5
aF504.60000000000002
aF504.60000000000002
aF504.60000000000002
aF504.69999999999999
aF504.89999999999998
aF505.10000000000002
aF505.10000000000002
aF505.19999999999999
aF505.19999999999999
aF505.19999999999999
aF505.30000000000001
aF505.39999999999998
aF505.39999999999998
aF505.39999999999998
aF505.5
aF505.60000000000002
aF505.60000000000002
aF505.69999999999999
aF505.80000000000001
aF505.80000000000001
aF505.89999999999998
aF505.89999999999998
aF505.89999999999998
aF505.89999999999998
aF505.89999999999998
aF506.10000000000002
aF506.10000000000002
aF506.19999999999999
aF506.19999999999999
aF506.39999999999998
aF506.39999999999998
aF506.5
aF506.69999999999999
aF506.80000000000001
aF507
aF507
aF507
aF507.39999999999998
aF507.39999999999998
aF507.5
aF507.5
aF507.60000000000002
aF507.69999999999999
aF507.89999999999998
aF508
aF508.10000000000002
aF508.10000000000002
aF508.30000000000001
aF508.30000000000001
aF508.39999999999998
aF508.39999999999998
aF508.5
aF508.5
aF508.5
aF508.60000000000002
aF508.69999999999999
aF508.80000000000001
aF508.80000000000001
aF508.89999999999998
aF509
aF509
aF509.10000000000002
aF509.19999999999999
aF509.5
aF509.69999999999999
aF509.89999999999998
aF510
aF510.10000000000002
aF510.30000000000001
aF510.39999999999998
aF510.39999999999998
aF510.5
aF510.60000000000002
aF510.60000000000002
aF510.69999999999999
aF510.69999999999999
aF510.80000000000001
aF510.89999999999998
aF511
aF511.30000000000001
aF511.30000000000001
aF511.5
aF511.5
aF511.5
aF511.60000000000002
aF511.60000000000002
aF511.60000000000002
aF511.60000000000002
aF511.69999999999999
aF511.69999999999999
aF511.69999999999999
aF511.69999999999999
aF511.80000000000001
aF511.89999999999998
aF511.89999999999998
aF511.89999999999998
aF512
aF512
aF512.20000000000005
aF512.5
aF512.5
aF512.60000000000002
aF512.60000000000002
aF512.70000000000005
aF512.70000000000005
aF512.79999999999995
aF512.79999999999995
aF512.89999999999998
aF512.89999999999998
aF512.89999999999998
aF512.89999999999998
aF513
aF513.10000000000002
aF513.10000000000002
aF513.10000000000002
aF513.39999999999998
aF513.5
aF513.60000000000002
aF513.70000000000005
aF513.70000000000005
aF513.70000000000005
aF513.89999999999998
aF514.10000000000002
aF514.20000000000005
aF514.29999999999995
aF514.29999999999995
aF514.29999999999995
aF514.39999999999998
aF514.39999999999998
aF514.5
aF514.60000000000002
aF514.60000000000002
aF514.60000000000002
aF514.89999999999998
aF514.89999999999998
aF514.89999999999998
aF515
aF515
aF515
aF515
aF515
aF515
aF515.10000000000002
aF515.39999999999998
aF515.39999999999998
aF515.39999999999998
aF515.39999999999998
aF515.39999999999998
aF515.39999999999998
aF515.5
aF515.60000000000002
aF515.70000000000005
aF515.70000000000005
aF515.70000000000005
aF515.70000000000005
aF515.89999999999998
aF516
aF516.10000000000002
aF516.20000000000005
aF516.29999999999995
aF516.29999999999995
aF516.29999999999995
aF516.5
aF516.79999999999995
aF516.79999999999995
aF516.79999999999995
aF516.89999999999998
aF517
aF517.20000000000005
aF517.29999999999995
aF517.39999999999998
aF517.5
aF517.70000000000005
aF517.79999999999995
aF517.89999999999998
aF517.89999999999998
aF518
aF518
aF518.10000000000002
aF518.29999999999995
aF518.39999999999998
aF518.39999999999998
aF518.39999999999998
aF518.39999999999998
aF518.5
aF518.60000000000002
aF518.70000000000005
aF518.79999999999995
aF518.79999999999995
aF518.79999999999995
aF518.89999999999998
aF518.89999999999998
aF518.89999999999998
aF519
aF519.10000000000002
aF519.29999999999995
aF519.39999999999998
aF519.5
aF519.5
aF519.5
aF519.60000000000002
aF519.60000000000002
aF519.70000000000005
aF519.70000000000005
aF519.70000000000005
aF520
aF520
aF520.10000000000002
aF520.10000000000002
aF520.29999999999995
aF520.29999999999995
aF520.29999999999995
aF520.29999999999995
aF520.39999999999998
aF520.5
aF520.5
aF520.60000000000002
aF520.60000000000002
aF520.60000000000002
aF520.79999999999995
aF520.89999999999998
aF520.89999999999998
aF521.10000000000002
aF521.29999999999995
aF521.39999999999998
aF521.5
aF521.60000000000002
aF521.79999999999995
aF521.89999999999998
aF522.10000000000002
aF522.29999999999995
aF522.29999999999995
aF522.39999999999998
aF522.39999999999998
aF522.39999999999998
aF522.5
aF522.70000000000005
aF522.79999999999995
aF522.79999999999995
aF523
aF523.20000000000005
aF523.20000000000005
aF523.20000000000005
aF523.20000000000005
aF523.39999999999998
aF523.39999999999998
aF523.5
aF523.60000000000002
aF523.70000000000005
aF523.79999999999995
aF524
aF524.10000000000002
aF524.10000000000002
aF524.10000000000002
aF524.20000000000005
aF524.20000000000005
aF524.20000000000005
aF524.29999999999995
aF524.29999999999995
aF524.29999999999995
aF524.29999999999995
aF524.39999999999998
aF524.5
aF524.5
aF524.5
aF524.5
aF524.60000000000002
aF524.60000000000002
aF524.70000000000005
aF524.89999999999998
aF524.89999999999998
aF525
aF525
aF525
aF525.10000000000002
aF525.20000000000005
aF525.20000000000005
aF525.39999999999998
aF525.39999999999998
aF525.5
aF525.5
aF525.5
aF525.5
aF525.60000000000002
aF525.60000000000002
aF525.70000000000005
aF525.70000000000005
aF525.79999999999995
aF525.79999999999995
aF525.89999999999998
aF525.89999999999998
aF525.89999999999998
aF525.89999999999998
aF526
aF526.10000000000002
aF526.10000000000002
aF526.20000000000005
aF526.29999999999995
aF526.29999999999995
aF526.39999999999998
aF526.5
aF526.70000000000005
aF526.79999999999995
aF526.79999999999995
aF526.89999999999998
aF527.10000000000002
aF527.20000000000005
aF527.29999999999995
aF527.39999999999998
aF527.39999999999998
aF527.5
aF527.5
aF527.5
aF527.60000000000002
aF527.70000000000005
aF527.70000000000005
aF527.70000000000005
aF527.89999999999998
aF528
aF528
aF528
aF528
aF528.10000000000002
aF528.20000000000005
aF528.20000000000005
aF528.20000000000005
aF528.29999999999995
aF528.29999999999995
aF528.5
aF528.5
aF528.60000000000002
aF528.60000000000002
aF528.60000000000002
aF528.70000000000005
aF528.70000000000005
aF528.79999999999995
aF528.79999999999995
aF528.89999999999998
aF528.89999999999998
aF529
aF529.10000000000002
aF529.20000000000005
aF529.29999999999995
aF529.29999999999995
aF529.29999999999995
aF529.29999999999995
aF529.39999999999998
aF529.39999999999998
aF529.39999999999998
aF529.39999999999998
aF529.39999999999998
aF529.5
aF529.60000000000002
aF529.79999999999995
aF529.79999999999995
aF529.89999999999998
aF529.89999999999998
aF529.89999999999998
aF530
aF530
aF530
aF530
aF530
aF530
aF530
aF530
aF530
aF530.10000000000002
aF530.20000000000005
aF530.20000000000005
aF530.29999999999995
aF530.39999999999998
aF530.39999999999998
aF530.5
aF530.70000000000005
aF530.70000000000005
aF530.70000000000005
aF530.79999999999995
aF530.79999999999995
aF530.89999999999998
aF531
aF531
aF531
aF531.10000000000002
aF531.10000000000002
aF531.20000000000005
aF531.20000000000005
aF531.39999999999998
aF531.5
aF531.60000000000002
aF531.60000000000002
aF531.70000000000005
aF531.79999999999995
aF531.89999999999998
aF532
aF532
aF532.20000000000005
aF532.20000000000005
aF532.20000000000005
aF532.29999999999995
aF532.5
aF532.60000000000002
aF532.70000000000005
aF532.70000000000005
aF532.70000000000005
aF532.79999999999995
aF532.89999999999998
aF533
aF533.10000000000002
aF533.10000000000002
aF533.20000000000005
aF533.20000000000005
aF533.29999999999995
aF533.29999999999995
aF533.29999999999995
aF533.39999999999998
aF533.39999999999998
aF533.39999999999998
aF533.5
aF533.5
aF533.60000000000002
aF533.70000000000005
aF533.79999999999995
aF533.79999999999995
aF534
aF534
aF534.10000000000002
aF534.10000000000002
aF534.10000000000002
aF534.10000000000002
aF534.10000000000002
aF534.29999999999995
aF534.29999999999995
aF534.39999999999998
aF534.39999999999998
aF534.39999999999998
aF534.60000000000002
aF534.60000000000002
aF534.60000000000002
aF534.70000000000005
aF534.70000000000005
aF534.70000000000005
aF534.79999999999995
aF534.79999999999995
aF534.79999999999995
aF534.89999999999998
aF534.89999999999998
aF535
aF535.10000000000002
aF535.10000000000002
aF535.20000000000005
aF535.29999999999995
aF535.29999999999995
aF535.5
aF535.79999999999995
aF535.79999999999995
aF536
aF536.10000000000002
aF536.10000000000002
aF536.10000000000002
aF536.10000000000002
aF536.20000000000005
aF536.20000000000005
aF536.20000000000005
aF536.20000000000005
aF536.20000000000005
aF536.29999999999995
aF536.29999999999995
aF536.39999999999998
aF536.5
aF536.60000000000002
aF536.60000000000002
aF536.70000000000005
aF536.70000000000005
aF536.70000000000005
aF536.89999999999998
aF536.89999999999998
aF537
aF537
aF537
aF537
aF537.10000000000002
aF537.20000000000005
aF537.29999999999995
aF537.29999999999995
aF537.29999999999995
aF537.29999999999995
aF537.39999999999998
aF537.60000000000002
aF537.60000000000002
aF537.70000000000005
aF537.79999999999995
aF537.79999999999995
aF537.79999999999995
aF538
aF538.10000000000002
aF538.20000000000005
aF538.20000000000005
aF538.39999999999998
aF538.39999999999998
aF538.39999999999998
aF538.39999999999998
aF538.60000000000002
aF538.60000000000002
aF538.79999999999995
aF538.89999999999998
aF538.89999999999998
aF538.89999999999998
aF539
aF539.10000000000002
aF539.5
aF539.60000000000002
aF539.70000000000005
aF540
aF540
aF540.10000000000002
aF540.10000000000002
aF540.29999999999995
aF540.39999999999998
aF540.39999999999998
aF540.5
aF540.5
aF540.5
aF540.60000000000002
aF540.60000000000002
aF540.70000000000005
aF540.70000000000005
aF540.70000000000005
aF540.89999999999998
aF541
aF541
aF541
aF541
aF541.20000000000005
aF541.29999999999995
aF541.39999999999998
aF541.5
aF541.70000000000005
aF541.79999999999995
aF541.79999999999995
aF541.79999999999995
aF541.79999999999995
aF541.89999999999998
aF542
aF542
aF542
aF542.10000000000002
aF542.20000000000005
aF542.20000000000005
aF542.20000000000005
aF542.29999999999995
aF542.39999999999998
aF542.5
aF542.70000000000005
aF542.70000000000005
aF542.79999999999995
aF542.89999999999998
aF543
aF543
aF543.10000000000002
aF543.10000000000002
aF543.20000000000005
aF543.29999999999995
aF543.5
aF543.5
aF543.5
aF543.60000000000002
aF543.60000000000002
aF543.60000000000002
aF543.60000000000002
aF543.70000000000005
aF543.79999999999995
aF543.79999999999995
aF544.20000000000005
aF544.20000000000005
aF544.20000000000005
aF544.20000000000005
aF544.29999999999995
aF544.5
aF544.60000000000002
aF544.60000000000002
aF544.60000000000002
aF544.60000000000002
aF544.60000000000002
aF544.79999999999995
aF544.89999999999998
aF544.89999999999998
aF545.29999999999995
aF545.39999999999998
aF545.39999999999998
aF545.5
aF545.60000000000002
aF545.60000000000002
aF545.70000000000005
aF545.70000000000005
aF545.79999999999995
aF545.89999999999998
aF546.10000000000002
aF546.20000000000005
aF546.20000000000005
aF546.29999999999995
aF546.29999999999995
aF546.39999999999998
aF546.39999999999998
aF546.39999999999998
aF546.70000000000005
aF546.70000000000005
aF546.79999999999995
aF546.79999999999995
aF546.89999999999998
aF546.89999999999998
aF547
aF547.20000000000005
aF547.29999999999995
aF547.39999999999998
aF547.5
aF547.5
aF547.60000000000002
aF547.70000000000005
aF547.79999999999995
aF547.79999999999995
aF547.89999999999998
aF548
aF548.20000000000005
aF548.20000000000005
aF548.29999999999995
aF548.29999999999995
aF548.39999999999998
aF548.39999999999998
aF548.5
aF548.5
aF548.60000000000002
aF548.79999999999995
aF548.89999999999998
aF548.89999999999998
aF548.89999999999998
aF548.89999999999998
aF549
aF549.10000000000002
aF549.10000000000002
aF549.20000000000005
aF549.20000000000005
aF549.29999999999995
aF549.29999999999995
aF549.39999999999998
aF549.5
aF549.60000000000002
aF549.70000000000005
aF549.79999999999995
aF549.89999999999998
aF550
aF550.10000000000002
aF550.20000000000005
aF550.20000000000005
aF550.29999999999995
aF550.29999999999995
aF550.5
aF550.70000000000005
aF550.70000000000005
aF550.70000000000005
aF550.70000000000005
aF550.70000000000005
aF551.20000000000005
aF551.20000000000005
aF551.5
aF551.5
aF551.5
aF551.60000000000002
aF551.60000000000002
aF551.60000000000002
aF551.79999999999995
aF551.79999999999995
aF551.79999999999995
aF552.10000000000002
aF552.20000000000005
aF552.20000000000005
aF552.39999999999998
aF552.5
aF552.5
aF552.79999999999995
aF552.79999999999995
aF552.89999999999998
aF552.89999999999998
aF552.89999999999998
aF553
aF553.20000000000005
aF553.20000000000005
aF553.20000000000005
aF553.39999999999998
aF553.5
aF553.60000000000002
aF553.79999999999995
aF553.89999999999998
aF553.89999999999998
aF553.89999999999998
aF554
aF554
aF554
aF554
aF554
aF554.10000000000002
aF554.20000000000005
aF554.20000000000005
aF554.20000000000005
aF554.29999999999995
aF554.29999999999995
aF554.39999999999998
aF554.39999999999998
aF554.5
aF554.5
aF554.5
aF554.70000000000005
aF554.79999999999995
aF554.79999999999995
aF554.89999999999998
aF555
aF555.20000000000005
aF555.29999999999995
aF555.39999999999998
aF555.39999999999998
aF555.5
aF555.60000000000002
aF555.70000000000005
aF555.70000000000005
aF555.79999999999995
aF555.79999999999995
aF555.89999999999998
aF555.89999999999998
aF555.89999999999998
aF556
aF556.10000000000002
aF556.29999999999995
aF556.39999999999998
aF556.39999999999998
aF556.5
aF556.60000000000002
aF556.70000000000005
aF556.70000000000005
aF556.79999999999995
aF556.89999999999998
aF556.89999999999998
aF557
aF557
aF557.10000000000002
aF557.10000000000002
aF557.20000000000005
aF557.29999999999995
aF557.39999999999998
aF557.5
aF557.60000000000002
aF557.70000000000005
aF557.79999999999995
aF557.89999999999998
aF557.89999999999998
aF558.10000000000002
aF558.10000000000002
aF558.20000000000005
aF558.20000000000005
aF558.39999999999998
aF558.5
aF558.60000000000002
aF558.79999999999995
aF558.89999999999998
aF559
aF559.10000000000002
aF559.29999999999995
aF559.60000000000002
aF559.79999999999995
aF559.79999999999995
aF559.79999999999995
aF560
aF560
aF560.10000000000002
aF560.20000000000005
aF560.20000000000005
aF560.29999999999995
aF560.5
aF560.5
aF560.5
aF560.70000000000005
aF560.89999999999998
aF560.89999999999998
aF561
aF561
aF561.10000000000002
aF561.20000000000005
aF561.29999999999995
aF561.60000000000002
aF561.70000000000005
aF561.79999999999995
aF561.89999999999998
aF562
aF562.20000000000005
aF562.29999999999995
aF562.29999999999995
aF562.39999999999998
aF562.39999999999998
aF562.39999999999998
aF562.60000000000002
aF562.60000000000002
aF562.79999999999995
aF562.79999999999995
aF562.79999999999995
aF562.89999999999998
aF562.89999999999998
aF562.89999999999998
aF563
aF563.10000000000002
aF563.10000000000002
aF563.5
aF563.60000000000002
aF563.70000000000005
aF563.89999999999998
aF564.20000000000005
aF564.39999999999998
aF564.39999999999998
aF564.39999999999998
aF564.39999999999998
aF564.39999999999998
aF564.39999999999998
aF564.5
aF564.60000000000002
aF564.79999999999995
aF565
aF565.10000000000002
aF565.20000000000005
aF565.20000000000005
aF565.20000000000005
aF565.29999999999995
aF565.29999999999995
aF565.29999999999995
aF565.39999999999998
aF565.5
aF565.60000000000002
aF565.70000000000005
aF565.70000000000005
aF565.79999999999995
aF565.79999999999995
aF566
aF566
aF566
aF566.10000000000002
aF566.20000000000005
aF566.29999999999995
aF566.70000000000005
aF566.70000000000005
aF567
aF567
aF567
aF567.10000000000002
aF567.20000000000005
aF567.20000000000005
aF567.29999999999995
aF567.29999999999995
aF567.39999999999998
aF567.5
aF567.60000000000002
aF567.60000000000002
aF567.79999999999995
aF567.79999999999995
aF568
aF568.29999999999995
aF568.5
aF568.5
aF568.60000000000002
aF568.60000000000002
aF568.89999999999998
aF569
aF569
aF569
aF569.10000000000002
aF569.10000000000002
aF569.20000000000005
aF569.29999999999995
aF569.70000000000005
aF569.70000000000005
aF569.89999999999998
aF570
aF570
aF570.70000000000005
aF570.79999999999995
aF570.79999999999995
aF570.79999999999995
aF571
aF571.10000000000002
aF571.29999999999995
aF571.60000000000002
aF571.89999999999998
aF571.89999999999998
aF571.89999999999998
aF572.10000000000002
aF572.20000000000005
aF572.5
aF572.5
aF572.5
aF572.5
aF572.5
aF572.60000000000002
aF572.60000000000002
aF572.70000000000005
aF572.70000000000005
aF572.79999999999995
aF573.20000000000005
aF573.29999999999995
aF573.70000000000005
aF573.79999999999995
aF573.79999999999995
aF574
aF574
aF574
aF574
aF574.60000000000002
aF574.70000000000005
aF574.70000000000005
aF574.70000000000005
aF574.70000000000005
aF574.79999999999995
aF575
aF575.20000000000005
aF575.29999999999995
aF575.5
aF575.70000000000005
aF575.70000000000005
aF575.79999999999995
aF575.89999999999998
aF576
aF576.10000000000002
aF576.20000000000005
aF576.39999999999998
aF576.39999999999998
aF576.39999999999998
aF576.60000000000002
aF576.60000000000002
aF576.60000000000002
aF576.70000000000005
aF576.89999999999998
aF576.89999999999998
aF576.89999999999998
aF577
aF577.10000000000002
aF577.10000000000002
aF577.60000000000002
aF578.10000000000002
aF578.10000000000002
aF578.10000000000002
aF578.20000000000005
aF578.39999999999998
aF578.5
aF578.70000000000005
aF578.79999999999995
aF578.79999999999995
aF579.20000000000005
aF579.29999999999995
aF579.29999999999995
aF579.5
aF579.5
aF579.70000000000005
aF579.79999999999995
aF579.79999999999995
aF580.10000000000002
aF580.20000000000005
aF580.39999999999998
aF580.39999999999998
aF580.70000000000005
aF581
aF581.5
aF581.79999999999995
aF581.79999999999995
aF582.10000000000002
aF582.70000000000005
aF582.70000000000005
aF583.10000000000002
aF583.5
aF583.70000000000005
aF583.79999999999995
aF583.79999999999995
aF583.89999999999998
aF583.89999999999998
aF583.89999999999998
aF584.10000000000002
aF584.10000000000002
aF584.10000000000002
aF584.10000000000002
aF584.29999999999995
aF584.29999999999995
aF584.5
aF584.5
aF584.5
aF584.70000000000005
aF584.79999999999995
aF584.79999999999995
aF584.89999999999998
aF584.89999999999998
aF584.89999999999998
aF585
aF585.20000000000005
aF585.20000000000005
aF585.29999999999995
aF585.39999999999998
aF585.5
aF585.70000000000005
aF585.89999999999998
aF586.10000000000002
aF586.10000000000002
aF586.29999999999995
aF586.29999999999995
aF586.29999999999995
aF586.39999999999998
aF586.39999999999998
aF586.5
aF586.60000000000002
aF586.60000000000002
aF586.89999999999998
aF586.89999999999998
aF586.89999999999998
aF587
aF587.10000000000002
aF587.29999999999995
aF587.5
aF587.5
aF588
aF588.20000000000005
aF588.29999999999995
aF588.39999999999998
aF588.39999999999998
aF588.39999999999998
aF589
aF589.5
aF589.5
aF589.89999999999998
aF589.89999999999998
aF590.20000000000005
aF590.20000000000005
aF590.29999999999995
aF590.60000000000002
aF590.70000000000005
aF590.70000000000005
aF590.79999999999995
aF590.79999999999995
aF590.79999999999995
aF591.60000000000002
aF591.70000000000005
aF592
aF592.10000000000002
aF592.29999999999995
aF592.29999999999995
aF592.39999999999998
aF592.5
aF592.79999999999995
aF592.89999999999998
aF593.20000000000005
aF593.20000000000005
aF593.39999999999998
aF593.39999999999998
aF593.60000000000002
aF593.60000000000002
aF593.70000000000005
aF593.70000000000005
aF593.70000000000005
aF593.70000000000005
aF593.79999999999995
aF593.89999999999998
aF593.89999999999998
aF593.89999999999998
aF594
aF594.39999999999998
aF594.39999999999998
aF594.5
aF594.70000000000005
aF594.79999999999995
aF595.70000000000005
aF595.89999999999998
aF595.89999999999998
aF595.89999999999998
aF596
aF596
aF596.10000000000002
aF596.20000000000005
aF596.29999999999995
aF596.39999999999998
aF596.39999999999998
aF596.60000000000002
aF597.10000000000002
aF597.20000000000005
aF597.60000000000002
aF598
aF598.10000000000002
aF598.20000000000005
aF598.5
aF598.60000000000002
aF599.39999999999998
aF599.60000000000002
aF599.79999999999995
aF599.79999999999995
aF600
aF600.5
aF600.79999999999995
aF600.89999999999998
aF601.60000000000002
aF601.79999999999995
aF602
aF602.10000000000002
aF602.5
aF602.70000000000005
aF602.70000000000005
aF603.10000000000002
aF603.20000000000005
aF603.60000000000002
aF604.10000000000002
aF604.20000000000005
aF604.29999999999995
aF604.39999999999998
aF604.39999999999998
aF604.39999999999998
aF604.39999999999998
aF604.39999999999998
aF604.5
aF604.60000000000002
aF605.10000000000002
aF605.10000000000002
aF605.29999999999995
aF605.5
aF605.70000000000005
aF605.89999999999998
aF606
aF606.10000000000002
aF606.60000000000002
aF606.70000000000005
aF606.79999999999995
aF607.10000000000002
aF607.39999999999998
aF607.60000000000002
aF607.70000000000005
aF607.89999999999998
aF607.89999999999998
aF608.20000000000005
aF608.5
aF608.5
aF608.70000000000005
aF609.10000000000002
aF609.20000000000005
aF609.89999999999998
aF610.10000000000002
aF610.10000000000002
aF610.29999999999995
aF610.29999999999995
aF610.39999999999998
aF610.39999999999998
aF610.60000000000002
aF610.89999999999998
aF610.89999999999998
aF611.29999999999995
aF611.5
aF611.60000000000002
aF612
aF612.10000000000002
aF612.10000000000002
aF612.10000000000002
aF612.20000000000005
aF612.20000000000005
aF612.60000000000002
aF612.60000000000002
aF613.10000000000002
aF613.20000000000005
aF613.5
aF613.5
aF613.79999999999995
aF613.79999999999995
aF613.79999999999995
aF613.89999999999998
aF614.89999999999998
aF615
aF615
aF616
aF616.5
aF616.60000000000002
aF616.79999999999995
aF616.89999999999998
aF617.10000000000002
aF617.39999999999998
aF617.5
aF617.70000000000005
aF618.10000000000002
aF618.39999999999998
aF618.70000000000005
aF618.79999999999995
aF618.79999999999995
aF619.10000000000002
aF619.20000000000005
aF619.20000000000005
aF619.5
aF619.5
aF620
aF620.39999999999998
aF620.60000000000002
aF620.70000000000005
aF620.70000000000005
aF620.89999999999998
aF621
aF621.10000000000002
aF621.10000000000002
aF621.39999999999998
aF621.39999999999998
aF621.5
aF621.70000000000005
aF622
aF622.20000000000005
aF622.29999999999995
aF622.60000000000002
aF622.79999999999995
aF623.29999999999995
aF623.5
aF623.5
aF624
aF624.60000000000002
aF624.60000000000002
aF624.79999999999995
aF624.79999999999995
aF624.89999999999998
aF625
aF625.10000000000002
aF625.20000000000005
aF625.39999999999998
aF625.79999999999995
aF625.79999999999995
aF625.89999999999998
aF626.10000000000002
aF626.20000000000005
aF626.29999999999995
aF626.89999999999998
aF626.89999999999998
aF627.20000000000005
aF627.70000000000005
aF627.79999999999995
aF628.10000000000002
aF628.20000000000005
aF628.5
aF628.89999999999998
aF629.10000000000002
aF629.39999999999998
aF629.79999999999995
aF630
aF630
aF630.10000000000002
aF630.10000000000002
aF630.39999999999998
aF630.5
aF630.5
aF630.60000000000002
aF630.70000000000005
aF631.10000000000002
aF631.70000000000005
aF632.39999999999998
aF632.89999999999998
aF633
aF633.29999999999995
aF633.39999999999998
aF633.39999999999998
aF633.5
aF633.60000000000002
aF633.79999999999995
aF634.20000000000005
aF634.29999999999995
aF634.60000000000002
aF634.70000000000005
aF635.10000000000002
aF635.20000000000005
aF635.39999999999998
aF635.5
aF636.10000000000002
aF636.10000000000002
aF636.29999999999995
aF636.5
aF636.5
aF636.79999999999995
aF637.10000000000002
aF637.20000000000005
aF637.20000000000005
aF637.29999999999995
aF637.5
aF637.5
aF637.5
aF637.5
aF637.70000000000005
aF638.20000000000005
aF638.20000000000005
aF638.29999999999995
aF638.79999999999995
aF639.29999999999995
aF639.39999999999998
aF639.5
aF639.60000000000002
aF640.39999999999998
aF640.79999999999995
aF641.10000000000002
aF641.10000000000002
aF641.20000000000005
aF641.39999999999998
aF641.39999999999998
aF641.39999999999998
aF641.5
aF641.5
aF642.89999999999998
aF643.70000000000005
aF643.89999999999998
aF644.60000000000002
aF644.70000000000005
aF645.29999999999995
aF645.60000000000002
aF646.10000000000002
aF646.20000000000005
aF646.29999999999995
aF646.89999999999998
aF647
aF647.5
aF647.79999999999995
aF647.79999999999995
aF648
aF648.29999999999995
aF648.5
aF648.5
aF649.10000000000002
aF649.20000000000005
aF649.89999999999998
aF650
aF650.10000000000002
aF650.10000000000002
aF650.10000000000002
aF651
aF651
aF651.29999999999995
aF651.39999999999998
aF651.70000000000005
aF651.79999999999995
aF653.39999999999998
aF653.39999999999998
aF653.60000000000002
aF653.70000000000005
aF653.89999999999998
aF653.89999999999998
aF653.89999999999998
aF654
aF654.39999999999998
aF654.60000000000002
aF655
aF655
aF655.10000000000002
aF655.60000000000002
aF655.70000000000005
aF657.29999999999995
aF657.39999999999998
aF657.70000000000005
aF657.79999999999995
aF658.10000000000002
aF658.70000000000005
aF658.70000000000005
aF658.89999999999998
aF658.89999999999998
aF659.89999999999998
aF660.10000000000002
aF660.5
aF660.60000000000002
aF660.60000000000002
aF660.79999999999995
aF661
aF661.5
aF662.29999999999995
aF662.39999999999998
aF663.10000000000002
aF663.10000000000002
aF663.20000000000005
aF663.5
aF664.39999999999998
aF664.79999999999995
aF665.39999999999998
aF665.89999999999998
aF666.29999999999995
aF666.5
aF666.60000000000002
aF667
aF667.70000000000005
aF667.79999999999995
aF667.79999999999995
aF668.79999999999995
aF669.79999999999995
aF669.89999999999998
aF670.10000000000002
aF670.5
aF670.5
aF670.70000000000005
aF670.70000000000005
aF670.89999999999998
aF671.20000000000005
aF671.20000000000005
aF671.70000000000005
aF671.89999999999998
aF672.20000000000005
aF672.70000000000005
aF673
aF673.39999999999998
aF673.79999999999995
aF675
aF675.29999999999995
aF676
aF677.20000000000005
aF677.70000000000005
aF678.20000000000005
aF678.39999999999998
aF678.5
aF678.70000000000005
aF678.79999999999995
aF678.79999999999995
aF678.89999999999998
aF679
aF679.39999999999998
aF679.60000000000002
aF679.70000000000005
aF680.60000000000002
aF680.70000000000005
aF681.60000000000002
aF682
aF682.29999999999995
aF682.39999999999998
aF682.89999999999998
aF682.89999999999998
aF683
aF683.10000000000002
aF683.20000000000005
aF683.39999999999998
aF683.5
aF684
aF684
aF685.29999999999995
aF685.60000000000002
aF685.89999999999998
aF686.10000000000002
aF686.10000000000002
aF686.20000000000005
aF686.5
aF687.29999999999995
aF687.39999999999998
aF687.70000000000005
aF687.89999999999998
aF688.29999999999995
aF688.39999999999998
aF688.5
aF690.20000000000005
aF690.5
aF690.5
aF690.60000000000002
aF690.89999999999998
aF691.20000000000005
aF691.89999999999998
aF692.5
aF692.70000000000005
aF693.39999999999998
aF694.39999999999998
aF694.5
aF695.20000000000005
aF696.10000000000002
aF696.89999999999998
aF697.10000000000002
aF697.29999999999995
aF697.79999999999995
aF697.79999999999995
aF698
aF698.29999999999995
aF700.39999999999998
aF700.5
aF700.89999999999998
aF700.89999999999998
aF702.5
aF703.29999999999995
aF703.70000000000005
aF705.20000000000005
aF705.89999999999998
aF706.29999999999995
aF707
aF708.89999999999998
aF709.20000000000005
aF710.29999999999995
aF710.5
aF710.5
aF711.39999999999998
aF712.10000000000002
aF712.89999999999998
aF713.60000000000002
aF713.79999999999995
aF714.10000000000002
aF714.29999999999995
aF715.60000000000002
aF716
aF716.20000000000005
aF716.89999999999998
aF717
aF717.29999999999995
aF717.29999999999995
aF717.39999999999998
aF717.89999999999998
aF717.89999999999998
aF718.89999999999998
aF719.29999999999995
aF719.39999999999998
aF720.10000000000002
aF720.39999999999998
aF720.70000000000005
aF721.39999999999998
aF722.20000000000005
aF722.60000000000002
aF722.70000000000005
aF723.89999999999998
aF724.5
aF724.5
aF724.70000000000005
aF724.89999999999998
aF725
aF725.39999999999998
aF725.79999999999995
aF725.79999999999995
aF725.89999999999998
aF726
aF726.10000000000002
aF726.20000000000005
aF726.29999999999995
aF726.39999999999998
aF726.39999999999998
aF726.89999999999998
aF727.20000000000005
aF727.60000000000002
aF727.89999999999998
aF728.70000000000005
aF729.20000000000005
aF729.29999999999995
aF729.29999999999995
aF729.29999999999995
aF729.70000000000005
aF730.20000000000005
aF733
aF733.29999999999995
aF733.79999999999995
aF734.10000000000002
aF734.29999999999995
aF734.29999999999995
aF734.39999999999998
aF734.70000000000005
aF735.89999999999998
aF736.10000000000002
aF736.39999999999998
aF736.79999999999995
aF737.20000000000005
aF737.39999999999998
aF737.89999999999998
aF738.79999999999995
aF739.39999999999998
aF740.20000000000005
aF741
aF741.39999999999998
aF742.5
aF743.70000000000005
aF745.20000000000005
aF746.70000000000005
aF747.20000000000005
aF748
aF748.70000000000005
aF749.70000000000005
aF750
aF750.29999999999995
aF750.39999999999998
aF750.5
aF751.29999999999995
aF751.39999999999998
aF752.5
aF752.79999999999995
aF752.89999999999998
aF755.39999999999998
aF756.29999999999995
aF757.29999999999995
aF758.5
aF759.29999999999995
aF760
aF760.60000000000002
aF761.70000000000005
aF762.39999999999998
aF763.79999999999995
aF764.60000000000002
aF766.10000000000002
aF766.5
aF766.89999999999998
aF767.79999999999995
aF768.29999999999995
aF768.39999999999998
aF768.70000000000005
aF771.10000000000002
aF771.70000000000005
aF774
aF774.10000000000002
aF774.79999999999995
aF775.70000000000005
aF779.29999999999995
aF780.39999999999998
aF780.70000000000005
aF781.39999999999998
aF781.39999999999998
aF781.70000000000005
aF781.70000000000005
aF782.29999999999995
aF784
aF784.39999999999998
aF784.5
aF784.70000000000005
aF784.89999999999998
aF785.29999999999995
aF785.29999999999995
aF786
aF786.79999999999995
aF787.39999999999998
aF788.70000000000005
aF789.70000000000005
aF790.29999999999995
aF790.39999999999998
aF791.79999999999995
aF791.79999999999995
aF791.89999999999998
aF793
aF793.29999999999995
aF794.79999999999995
aF795.29999999999995
aF795.89999999999998
aF796.10000000000002
aF796.5
aF797
aF797.5
aF797.5
aF799.20000000000005
aF800.79999999999995
aF801.29999999999995
aF802.10000000000002
aF803.79999999999995
aF803.89999999999998
aF804.20000000000005
aF804.70000000000005
aF805.60000000000002
aF806.39999999999998
aF806.60000000000002
aF807.20000000000005
aF808.60000000000002
aF808.70000000000005
aF809.20000000000005
aF811.60000000000002
aF811.89999999999998
aF812.60000000000002
aF815.20000000000005
aF816.29999999999995
aF816.89999999999998
aF817.20000000000005
aF818
aF818.89999999999998
aF819.79999999999995
aF820.10000000000002
aF821.29999999999995
aF822.39999999999998
aF822.39999999999998
aF823.5
aF824.10000000000002
aF826.70000000000005
aF828.29999999999995
aF828.60000000000002
aF834.89999999999998
aF836.29999999999995
aF838.89999999999998
aF839.89999999999998
aF840.60000000000002
aF841.20000000000005
aF843
aF843.89999999999998
aF844.89999999999998
aF846.5
aF846.60000000000002
aF846.89999999999998
aF847.79999999999995
aF848.39999999999998
aF848.5
aF849.70000000000005
aF850.60000000000002
aF851.39999999999998
aF852.89999999999998
aF853.60000000000002
aF854.29999999999995
aF854.29999999999995
aF856.5
aF856.79999999999995
aF864.39999999999998
aF864.5
aF866.60000000000002
aF869.29999999999995
aF869.39999999999998
aF871.79999999999995
aF873.29999999999995
aF875
aF875.5
aF876.39999999999998
aF877.5
aF877.60000000000002
aF878.70000000000005
aF880.79999999999995
aF882.20000000000005
aF884.10000000000002
aF887.20000000000005
aF887.29999999999995
aF887.79999999999995
aF890.70000000000005
aF891
aF892.39999999999998
aF893.70000000000005
aF893.79999999999995
aF895.10000000000002
aF897
aF897.89999999999998
aF899.29999999999995
aF899.60000000000002
aF900.89999999999998
aF902.5
aF903.79999999999995
aF904.39999999999998
aF906.70000000000005
aF908.79999999999995
aF909.70000000000005
aF911.60000000000002
aF912.5
aF914.70000000000005
aF915.70000000000005
aF919.29999999999995
aF923.5
aF931.39999999999998
aF932.10000000000002
aF933.10000000000002
aF938.79999999999995
aF941.29999999999995
aF941.60000000000002
aF949.70000000000005
aF956.10000000000002
aF957.29999999999995
aF959.29999999999995
aF960.89999999999998
aF960.89999999999998
aF961.60000000000002
aF961.89999999999998
aF968.70000000000005
aF968.79999999999995
aF968.79999999999995
aF969.10000000000002
aF969.5
aF969.5
aF972.20000000000005
aF972.39999999999998
aF973.89999999999998
aF979.89999999999998
aF982.60000000000002
aF982.79999999999995
aF983.79999999999995
aF984.70000000000005
aF987.20000000000005
aF990.70000000000005
aF992.70000000000005
aF994
aF997.10000000000002
aF997.79999999999995
aF1001.8
aF1002.5
aF1007
aF1007.4
aF1007.5
aF1008.1
aF1008.6
aF1008.7
aF1012
aF1014
aF1015.5
aF1016.6
aF1021.1
aF1021.9
aF1024.4000000000001
aF1024.8
aF1030.7
aF1030.9000000000001
aF1031
aF1031.7
aF1032.9000000000001
aF1040.4000000000001
aF1042.9000000000001
aF1043.3
aF1043.4000000000001
aF1050.3
aF1050.4000000000001
aF1060.9000000000001
aF1061.0999999999999
aF1062.5
aF1066.8
aF1071.8
aF1074.5
aF1080.3
aF1081.4000000000001
aF1090.0999999999999
aF1111.7
aF1114.0999999999999
aF1191.3
aF1203.9000000000001
aF1212.0999999999999
aF1229.3
aF1233.3
aF1241.0999999999999
aF1276.7
aF1412.9000000000001
aF1541.5999999999999
aF1581.3
a.