(lp0
F13.0
aF14.2
aF15.8
aF15.9
aF21.4
aF23.0
aF23.2
aF24.7
aF24.7
aF25.1
aF29.4
aF29.6
aF29.7
aF30.4
aF30.5
aF31.2
aF32.8
aF34.0
aF35.4
aF35.4
aF36.2
aF37.0
aF37.1
aF40.3
aF40.5
aF41.4
aF41.5
aF42.2
aF42.5
aF42.9
aF43.5
aF43.6
aF43.7
aF43.7
aF45.2
aF45.5
aF46.0
aF46.7
aF47.6
aF47.7
aF48.2
aF48.2
aF51.5
aF51.7
aF52.0
aF52.2
aF52.5
aF53.9
aF54.0
aF55.6
aF56.1
aF56.4
aF57.4
aF57.5
aF58.1
aF58.4
aF59.0
aF60.0
aF60.8
aF61.1
aF61.6
aF62.2
aF62.7
aF63.4
aF63.7
aF63.8
aF64.4
aF65.2
aF65.2
aF65.4
aF65.7
aF65.8
aF66.4
aF66.4
aF67.1
aF67.2
aF67.4
aF67.9
aF68.0
aF68.3
aF68.3
aF68.7
aF69.5
aF70.5
aF70.7
aF70.7
aF71.2
aF71.5
aF71.9
aF72.2
aF72.9
aF74.5
aF74.9
aF75.8
aF76.2
aF76.2
aF76.3
aF76.4
aF77.3
aF77.5
aF77.7
aF77.8
aF77.9
aF81.2
aF81.3
aF81.7
aF81.8
aF82.6
aF82.7
aF83.5
aF83.7
aF84.0
aF84.0
aF84.3
aF84.4
aF84.5
aF84.9
aF84.9
aF85.3
aF85.5
aF86.1
aF86.1
aF86.6
aF86.8
aF87.3
aF87.5
aF87.7
aF88.1
aF88.2
aF88.2
aF88.8
aF89.2
aF89.4
aF89.9
aF90.0
aF90.6
aF90.8
aF90.9
aF90.9
aF91.0
aF91.1
aF92.1
aF92.5
aF92.5
aF93.0
aF93.0
aF93.3
aF93.4
aF93.7
aF95.2
aF95.5
aF96.4
aF96.6
aF97.1
aF97.6
aF98.2
aF98.3
aF98.4
aF98.5
aF99.0
aF99.1
aF99.1
aF99.4
aF99.6
aF99.9
aF100.0
aF100.0
aF100.4
aF101.3
aF101.3
aF101.3
aF101.5
aF101.7
aF102.2
aF102.3
aF103.0
aF104.5
aF104.5
aF104.7
aF104.9
aF104.9
aF105.2
aF105.2
aF105.5
aF105.5
aF106.5
aF107.1
aF107.1
aF108.2
aF108.5
aF108.7
aF108.8
aF108.8
aF108.9
aF109.0
aF109.3
aF109.7
aF110.1
aF110.2
aF110.4
aF110.4
aF110.8
aF111.0
aF111.1
aF111.5
aF111.6
aF111.9
aF112.1
aF112.5
aF112.5
aF112.7
aF113.2
aF114.0
aF114.8
aF115.3
aF115.3
aF115.4
aF115.7
aF116.3
aF116.6
aF116.7
aF117.0
aF117.0
aF118.9
aF119.8
aF120.0
aF120.2
aF121.2
aF121.3
aF121.7
aF121.7
aF122.2
aF122.4
aF122.8
aF123.0
aF123.0
aF123.7
aF124.3
aF125.2
aF125.4
aF126.1
aF126.7
aF126.8
aF126.9
aF127.3
aF127.5
aF127.9
aF128.3
aF128.8
aF128.9
aF129.0
aF129.0
aF129.1
aF129.3
aF129.5
aF129.6
aF129.8
aF129.9
aF130.0
aF130.1
aF130.5
aF130.7
aF131.2
aF131.4
aF133.0
aF133.3
aF134.0
aF134.4
aF135.2
aF135.3
aF135.4
aF135.5
aF136.0
aF136.3
aF136.6
aF136.9
aF137.4
aF137.8
aF138.0
aF138.1
aF138.2
aF138.5
aF138.5
aF138.5
aF139.0
aF139.1
aF139.3
aF139.5
aF140.4
aF140.5
aF141.0
aF141.1
aF141.7
aF142.0
aF142.2
aF142.7
aF142.7
aF143.1
aF143.1
aF143.2
aF143.9
aF144.3
aF144.4
aF144.6
aF144.9
aF145.4
aF146.5
aF146.7
aF147.1
aF148.0
aF148.2
aF148.2
aF148.3
aF148.5
aF148.6
aF148.9
aF149.3
aF149.4
aF150.5
aF150.8
aF151.4
aF152.4
aF152.7
aF153.9
aF154.1
aF154.1
aF154.3
aF154.8
aF154.9
aF155.5
aF155.6
aF155.7
aF155.8
aF155.9
aF156.1
aF156.5
aF156.6
aF157.5
aF157.6
aF157.6
aF157.7
aF157.8
aF157.8
aF158.1
aF158.7
aF159.4
aF159.6
aF159.7
aF160.2
aF160.6
aF161.2
aF161.4
aF161.6
aF161.7
aF161.8
aF162.6
aF162.7
aF162.8
aF163.0
aF163.1
aF164.0
aF164.1
aF164.1
aF164.8
aF164.8
aF164.9
aF165.3
aF165.3
aF165.5
aF165.6
aF165.6
aF165.7
aF165.7
aF166.0
aF166.3
aF166.5
aF167.3
aF167.4
aF168.1
aF168.5
aF169.3
aF169.5
aF169.5
aF170.5
aF170.7
aF171.3
aF171.5
aF171.7
aF171.9
aF172.0
aF172.2
aF173.1
aF173.8
aF174.3
aF174.7
aF175.2
aF175.2
aF175.3
aF175.6
aF175.7
aF175.9
aF176.0
aF176.1
aF176.1
aF177.8
aF178.0
aF178.5
aF178.6
aF178.8
aF179.5
aF179.5
aF179.7
aF179.8
aF180.1
aF180.4
aF180.7
aF182.0
aF182.2
aF182.4
aF182.4
aF183.1
aF184.4
aF184.6
aF184.8
aF185.7
aF185.8
aF186.1
aF186.2
aF187.1
aF187.1
aF187.2
aF187.2
aF188.5
aF188.8
aF189.0
aF189.3
aF189.4
aF189.6
aF189.8
aF190.4
aF190.4
aF190.6
aF191.0
aF191.1
aF191.2
aF191.6
aF191.9
aF192.7
aF192.9
aF193.4
aF193.7
aF193.7
aF193.7
aF194.0
aF194.2
aF194.3
aF194.5
aF195.2
aF195.2
aF195.5
aF195.6
aF196.0
aF196.9
aF197.7
aF197.8
aF198.0
aF199.2
aF199.5
aF199.5
aF199.6
aF199.8
aF199.8
aF200.5
aF200.8
aF201.7
aF201.7
aF202.0
aF202.8
aF203.1
aF203.2
aF203.3
aF203.3
aF203.4
aF203.7
aF203.8
aF204.4
aF204.7
aF204.8
aF204.9
aF205.6
aF205.6
aF206.0
aF206.5
aF206.5
aF206.6
aF206.7
aF207.2
aF207.6
aF209.1
aF209.2
aF209.3
aF209.6
aF210.5
aF210.6
aF210.7
aF210.9
aF211.3
aF211.9
aF212.5
aF212.5
aF212.9
aF213.0
aF213.1
aF214.4
aF214.4
aF214.8
aF215.0
aF215.7
aF216.1
aF216.2
aF216.9
aF217.1
aF217.2
aF217.3
aF217.4
aF217.4
aF217.8
aF217.9
aF218.4
aF218.8
aF219.0
aF219.1
aF219.4
aF220.0
aF220.1
aF221.0
aF221.0
aF221.2
aF222.0
aF222.7
aF223.0
aF224.8
aF224.8
aF225.2
aF226.0
aF226.2
aF227.7
aF228.0
aF228.3
aF228.3
aF229.0
aF229.6
aF231.1
aF231.6
aF232.2
aF232.9
aF232.9
aF234.4
aF234.8
aF234.9
aF235.4
aF235.6
aF235.6
aF235.6
aF236.3
aF236.7
aF236.9
aF237.3
aF238.1
aF238.4
aF238.6
aF239.3
aF240.8
aF241.0
aF241.1
aF241.3
aF241.8
aF242.0
aF242.4
aF242.5
aF242.5
aF242.7
aF242.7
aF242.8
aF243.2
aF243.6
aF245.8
aF246.3
aF246.8
aF246.9
aF247.1
aF247.4
aF247.9
aF247.9
aF248.4
aF248.7
aF249.9
aF250.1
aF250.3
aF250.3
aF250.3
aF251.2
aF251.6
aF251.7
aF252.9
aF253.1
aF253.2
aF253.9
aF254.6
aF256.3
aF256.4
aF258.9
aF259.6
aF259.7
aF259.8
aF259.9
aF260.0
aF260.1
aF260.5
aF260.6
aF261.2
aF261.7
aF263.5
aF263.9
aF264.4
aF264.5
aF265.6
aF266.3
aF266.3
aF266.6
aF266.6
aF266.7
aF267.4
aF268.0
aF268.4
aF269.9
aF270.4
aF270.5
aF270.7
aF271.1
aF272.2
aF272.4
aF272.4
aF272.7
aF273.1
aF274.3
aF274.4
aF274.5
aF275.4
aF275.8
aF276.3
aF277.4
aF278.1
aF278.9
aF279.0
aF279.5
aF280.3
aF280.3
aF280.4
aF281.6
aF281.8
aF281.9
aF282.4
aF282.5
aF282.7
aF283.5
aF283.7
aF284.0
aF284.6
aF285.0
aF285.0
aF285.3
aF285.6
aF285.6
aF285.9
aF286.7
aF286.8
aF286.8
aF287.4
aF288.1
aF288.9
aF290.9
aF291.0
aF291.6
aF291.8
aF292.3
aF292.6
aF292.8
aF293.5
aF295.3
aF296.3
aF297.0
aF297.4
aF298.2
aF298.7
aF299.0
aF299.3
aF299.3
aF300.6
aF300.8
aF301.1
aF301.8
aF302.9
aF303.5
aF303.6
aF305.3
aF306.3
aF306.7
aF307.9
aF308.3
aF309.1
aF309.6
aF310.5
aF310.7
aF311.4
aF313.2
aF315.8
aF316.2
aF316.6
aF318.0
aF318.9
aF319.2
aF320.2
aF321.0
aF321.9
aF321.9
aF323.1
aF324.4
aF326.8
aF326.8
aF327.0
aF327.4
aF327.8
aF328.9
aF329.1
aF329.3
aF329.7
aF329.8
aF330.2
aF330.3
aF330.4
aF330.9
aF331.6
aF331.8
aF334.0
aF334.5
aF335.4
aF335.7
aF336.6
aF337.3
aF337.8
aF338.3
aF339.8
aF339.8
aF339.9
aF340.2
aF340.4
aF340.8
aF340.9
aF340.9
aF341.5
aF341.6
aF341.9
aF342.6
aF342.8
aF343.9
aF344.3
aF344.4
aF344.6
aF344.7
aF344.9
aF345.2
aF345.4
aF346.3
aF347.2
aF348.5
aF348.9
aF349.3
aF350.4
aF351.1
aF351.9
aF352.3
aF354.0
aF354.1
aF354.7
aF355.2
aF355.3
aF356.3
aF356.5
aF357.7
aF357.7
aF357.9
aF358.1
aF358.3
aF358.6
aF359.9
aF360.7
aF361.1
aF361.3
aF361.4
aF361.6
aF362.3
aF362.4
aF363.8
aF364.4
aF364.5
aF364.5
aF365.4
aF366.4
aF366.5
aF366.6
aF366.6
aF366.8
aF367.1
aF367.3
aF368.3
aF369.2
aF369.6
aF370.2
aF370.8
aF371.3
aF371.4
aF371.7
aF372.5
aF373.2
aF373.2
aF374.1
aF374.5
aF374.6
aF375.1
aF375.6
aF375.8
aF375.8
aF376.1
aF376.7
aF377.1
aF377.8
aF377.8
aF377.9
aF377.9
aF378.3
aF378.4
aF378.7
aF378.7
aF379.0
aF379.6
aF380.2
aF380.5
aF380.9
aF381.0
aF381.5
aF382.4
aF382.6
aF383.8
aF384.9
aF385.1
aF385.5
aF386.3
aF387.3
aF387.3
aF387.3
aF387.6
aF387.9
aF388.0
aF389.1
aF389.1
aF389.7
aF390.4
aF391.4
aF391.4
aF391.6
aF392.0
aF392.9
aF393.0
aF393.1
aF393.3
aF393.3
aF393.4
aF394.5
aF395.1
aF395.2
aF395.3
aF395.4
aF395.7
aF396.4
aF397.3
aF397.9
aF398.2
aF398.3
aF399.1
aF399.4
aF399.4
aF399.6
aF400.1
aF401.2
aF401.3
aF403.3
aF403.5
aF403.6
aF403.7
aF404.7
aF405.2
aF405.9
aF406.7
aF408.7
aF409.0
aF409.1
aF410.2
aF410.5
aF410.5
aF411.5
aF411.5
aF413.0
aF413.9
aF416.3
aF416.3
aF416.6
aF416.7
aF417.3
aF417.3
aF417.8
aF417.9
aF418.4
aF418.6
aF418.6
aF419.4
aF419.7
aF421.1
aF421.7
aF422.7
aF422.8
aF422.9
aF423.0
aF423.1
aF423.6
aF423.7
aF423.9
aF424.0
aF424.6
aF426.9
aF428.4
aF428.8
aF430.4
aF430.6
aF430.9
aF431.0
aF431.6
aF432.1
aF432.6
aF432.6
aF433.1
aF433.3
aF434.4
aF435.6
aF435.7
aF436.3
aF436.5
aF437.0
aF437.8
aF439.0
aF440.1
aF441.0
aF442.4
aF443.1
aF444.3
aF444.5
aF444.7
aF445.5
aF445.9
aF446.0
aF446.6
aF447.7
aF447.7
aF449.4
aF450.4
aF452.2
aF452.3
aF453.1
aF453.8
aF453.8
aF455.3
aF455.6
aF455.7
aF456.1
aF456.7
aF456.7
aF456.7
aF458.4
aF458.6
aF459.4
aF459.7
aF461.4
aF461.8
aF461.8
aF462.6
aF463.5
aF464.1
aF464.3
aF465.8
aF466.3
aF466.3
aF466.6
aF466.6
aF466.6
aF466.7
aF467.7
aF470.5
aF471.7
aF476.7
aF477.0
aF477.1
aF477.3
aF477.4
aF477.8
aF478.7
aF478.9
aF479.4
aF480.3
aF481.5
aF481.6
aF482.5
aF482.7
aF485.0
aF485.9
aF488.1
aF488.8
aF489.3
aF490.4
aF491.4
aF491.9
aF492.1
aF492.5
aF492.8
aF493.5
aF493.9
aF494.0
aF494.7
aF494.8
aF495.2
aF496.0
aF497.5
aF499.5
aF499.9
aF500.1
aF500.3
aF500.8
aF501.0
aF501.9
aF502.9
aF503.0
aF503.9
aF504.2
aF504.3
aF504.7
aF504.8
aF505.1
aF509.5
aF509.5
aF511.4
aF512.8
aF513.2
aF513.3
aF513.7
aF514.3
aF515.0
aF515.8
aF516.3
aF516.8
aF517.6
aF517.8
aF518.1
aF518.7
aF519.6
aF520.0
aF520.7
aF521.2
aF521.4
aF521.5
aF521.8
aF521.9
aF522.1
aF523.4
aF523.4
aF523.6
aF523.7
aF523.8
aF524.1
aF526.5
aF527.6
aF528.0
aF528.8
aF529.6
aF530.9
aF532.8
aF532.8
aF533.2
aF533.4
aF533.9
aF535.0
aF535.1
aF535.7
aF538.0
aF538.9
aF539.8
aF541.6
aF541.7
aF541.7
aF543.0
aF546.8
aF546.9
aF547.4
aF548.1
aF549.7
aF549.9
aF550.1
aF550.2
aF550.2
aF550.7
aF552.7
aF554.2
aF554.4
aF557.2
aF557.5
aF560.5
aF563.1
aF567.5
aF569.2
aF569.6
aF571.3
aF572.7
aF573.1
aF573.2
aF574.5
aF576.4
aF579.5
aF580.0
aF582.7
aF583.0
aF583.8
aF587.1
aF587.6
aF588.2
aF588.4
aF589.7
aF590.1
aF590.7
aF591.5
aF591.9
aF592.7
aF592.9
aF594.6
aF595.4
aF598.1
aF598.8
aF602.2
aF603.7
aF606.3
aF606.8
aF607.9
aF608.1
aF611.2
aF612.1
aF612.9
aF613.5
aF613.8
aF614.8
aF615.1
aF619.2
aF620.7
aF621.5
aF626.8
aF628.1
aF629.6
aF629.7
aF631.2
aF631.6
aF634.4
aF636.7
aF640.0
aF640.1
aF642.5
aF644.1
aF646.0
aF650.3
aF651.0
aF651.0
aF651.7
aF652.0
aF653.2
aF665.9
aF672.1
aF672.8
aF681.9
aF682.3
aF687.2
aF689.5
aF691.6
aF694.9
aF698.1
aF700.1
aF700.4
aF702.8
aF704.8
aF705.3
aF707.7
aF710.9
aF713.9
aF716.7
aF717.7
aF718.6
aF719.5
aF721.2
aF723.9
aF724.2
aF730.7
aF733.3
aF735.1
aF736.4
aF736.8
aF737.0
aF737.1
aF741.5
aF745.5
aF746.9
aF747.3
aF750.1
aF750.6
aF751.1
aF761.4
aF763.8
aF767.0
aF767.9
aF770.1
aF770.6
aF776.0
aF779.1
aF783.9
aF790.0
aF795.5
aF798.0
aF801.8
aF802.0
aF804.1
aF808.6
aF809.0
aF809.0
aF810.9
aF812.6
aF818.6
aF821.4
aF827.2
aF830.1
aF831.2
aF831.2
aF831.5
aF839.1
aF842.0
aF846.5
aF850.1
aF851.3
aF851.9
aF852.8
aF856.3
aF857.8
aF858.0
aF858.7
aF858.7
aF861.3
aF866.6
aF873.3
aF874.0
aF879.6
aF888.1
aF889.3
aF894.6
aF898.5
aF900.2
aF901.9
aF904.7
aF906.6
aF908.6
aF910.9
aF910.9
aF916.4
aF917.5
aF918.3
aF918.5
aF920.1
aF922.5
aF929.6
aF929.8
aF930.3
aF932.8
aF934.9
aF936.4
aF944.6
aF944.8
aF949.7
aF950.5
aF950.9
aF953.2
aF955.3
aF956.2
aF956.5
aF959.2
aF967.9
aF970.5
aF970.6
aF972.6
aF973.3
aF974.0
aF975.1
aF975.7
aF981.0
aF982.8
aF984.0
aF998.3
aF999.3
aF1000.6
aF1007.1
aF1007.3
aF1007.8
aF1013.0
aF1015.0
aF1017.8
aF1018.1
aF1032.1
aF1034.8
aF1038.0
aF1041.3
aF1042.1
aF1043.4
aF1047.5
aF1053.0
aF1054.9
aF1060.8
aF1061.2
aF1063.2
aF1066.5
aF1066.9
aF1068.1
aF1069.7
aF1071.6
aF1073.9
aF1075.3
aF1078.8
aF1090.4
aF1091.4
aF1091.7
aF1092.5
aF1093.1
aF1096.7
aF1102.5
aF1102.8
aF1114.3
aF1119.5
aF1122.9
aF1123.9
aF1131.4
aF1135.6
aF1137.1
aF1140.3
aF1140.5
aF1143.3
aF1149.4
aF1158.5
aF1168.3
aF1168.5
aF1170.8
aF1175.3
aF1177.5
aF1179.6
aF1200.5
aF1203.6
aF1217.6
aF1220.7
aF1222.9
aF1231.2
aF1235.7
aF1247.6
aF1255.0
aF1267.1
aF1270.6
aF1271.6
aF1322.5
aF1388.4
aF1393.1
aF1456.2
aF1457.3
aF1476.7
aF1486.6
aF1493.4
aF1527.5
aF1540.5
aF1610.3
aF1635.6
aF1656.2
aF1667.5
aF1676.0
aF1689.5
aF1707.1
aF1746.1
aF1846.1
aF1857.1
aF1969.1
aF1995.1
aF1995.4
aF2020.8
aF2035.6
aF2055.3
aF2056.4
aF2099.0
aF2099.9
aF2114.3
aF2121.0
aF2182.7
aF2220.5
aF2232.5
aF2238.5
aF2304.5
aF2345.5
aF2360.0
aF2375.6
aF2383.0
aF2404.1
aF2469.3
aF2497.3
aF2678.8
a.