(lp0
F0.7
aF1.2
aF1.3
aF1.5
aF1.5
aF1.8
aF1.8
aF1.9
aF1.9
aF2.1
aF2.2
aF2.2
aF2.3
aF2.4
aF2.5
aF2.5
aF2.5
aF2.6
aF2.7
aF2.8
aF2.8
aF2.8
aF2.8
aF2.8
aF2.9
aF2.9
aF2.9
aF3.2
aF3.2
aF3.4
aF3.4
aF3.6
aF3.6
aF3.6
aF3.6
aF3.8
aF3.8
aF3.8
aF3.9
aF3.9
aF3.9
aF4.0
aF4.2
aF4.2
aF4.2
aF4.3
aF4.3
aF4.3
aF4.3
aF4.4
aF4.5
aF4.5
aF4.6
aF4.6
aF4.6
aF4.7
aF4.7
aF4.8
aF4.8
aF4.9
aF5.0
aF5.2
aF5.2
aF5.3
aF5.3
aF5.4
aF5.4
aF5.5
aF5.5
aF5.5
aF5.5
aF5.5
aF5.5
aF5.5
aF5.6
aF5.7
aF5.7
aF5.8
aF5.8
aF5.8
aF5.9
aF6.0
aF6.2
aF6.2
aF6.2
aF6.2
aF6.4
aF6.4
aF6.4
aF6.4
aF6.5
aF6.5
aF6.5
aF6.5
aF6.5
aF6.5
aF6.6
aF6.6
aF6.7
aF6.9
aF6.9
aF6.9
aF7.0
aF7.0
aF7.0
aF7.1
aF7.2
aF7.2
aF7.3
aF7.3
aF7.3
aF7.3
aF7.3
aF7.3
aF7.4
aF7.5
aF7.7
aF7.7
aF7.9
aF8.0
aF8.0
aF8.1
aF8.2
aF8.3
aF8.4
aF8.4
aF8.5
aF8.5
aF8.7
aF8.7
aF8.7
aF8.8
aF8.8
aF8.9
aF8.9
aF8.9
aF8.9
aF8.9
aF9.0
aF9.0
aF9.0
aF9.1
aF9.2
aF9.2
aF9.2
aF9.3
aF9.4
aF9.4
aF9.5
aF9.7
aF9.7
aF9.8
aF9.9
aF9.9
aF10.0
aF10.0
aF10.1
aF10.2
aF10.2
aF10.2
aF10.2
aF10.3
aF10.3
aF10.3
aF10.3
aF10.5
aF10.5
aF10.5
aF10.5
aF10.6
aF10.7
aF10.7
aF10.7
aF10.8
aF10.9
aF11.0
aF11.0
aF11.1
aF11.1
aF11.2
aF11.2
aF11.2
aF11.3
aF11.4
aF11.5
aF11.5
aF11.5
aF11.5
aF11.6
aF11.6
aF11.6
aF11.6
aF11.6
aF11.6
aF11.7
aF11.7
aF11.7
aF11.7
aF11.8
aF11.9
aF11.9
aF12.0
aF12.1
aF12.3
aF12.3
aF12.3
aF12.3
aF12.4
aF12.4
aF12.4
aF12.4
aF12.5
aF12.5
aF12.7
aF12.8
aF12.8
aF12.8
aF12.9
aF13.0
aF13.0
aF13.0
aF13.1
aF13.1
aF13.1
aF13.1
aF13.2
aF13.2
aF13.2
aF13.2
aF13.2
aF13.4
aF13.5
aF13.5
aF13.5
aF13.6
aF13.6
aF13.7
aF13.8
aF13.8
aF13.8
aF13.8
aF13.8
aF13.9
aF13.9
aF13.9
aF14.0
aF14.0
aF14.2
aF14.2
aF14.2
aF14.2
aF14.3
aF14.3
aF14.3
aF14.3
aF14.3
aF14.4
aF14.4
aF14.4
aF14.4
aF14.5
aF14.5
aF14.5
aF14.5
aF14.6
aF14.6
aF14.8
aF14.8
aF14.9
aF15.1
aF15.2
aF15.3
aF15.3
aF15.3
aF15.4
aF15.6
aF15.7
aF15.8
aF15.8
aF15.8
aF15.9
aF16.0
aF16.0
aF16.0
aF16.1
aF16.1
aF16.1
aF16.1
aF16.1
aF16.2
aF16.2
aF16.2
aF16.3
aF16.3
aF16.3
aF16.3
aF16.4
aF16.4
aF16.5
aF16.6
aF16.7
aF16.7
aF16.8
aF16.9
aF17.0
aF17.0
aF17.0
aF17.1
aF17.1
aF17.1
aF17.2
aF17.2
aF17.2
aF17.4
aF17.4
aF17.4
aF17.5
aF17.5
aF17.6
aF17.7
aF17.8
aF17.8
aF17.8
aF17.8
aF17.8
aF17.9
aF18.0
aF18.1
aF18.1
aF18.1
aF18.1
aF18.2
aF18.3
aF18.4
aF18.4
aF18.4
aF18.4
aF18.5
aF18.5
aF18.5
aF18.7
aF18.8
aF18.8
aF18.8
aF18.8
aF18.9
aF18.9
aF19.0
aF19.1
aF19.1
aF19.2
aF19.2
aF19.2
aF19.3
aF19.4
aF19.4
aF19.4
aF19.4
aF19.5
aF19.6
aF19.7
aF19.8
aF19.8
aF19.8
aF19.8
aF19.8
aF19.9
aF20.0
aF20.0
aF20.0
aF20.0
aF20.1
aF20.1
aF20.1
aF20.1
aF20.2
aF20.3
aF20.3
aF20.3
aF20.3
aF20.4
aF20.5
aF20.6
aF20.7
aF20.7
aF20.8
aF20.8
aF20.8
aF20.8
aF20.9
aF20.9
aF20.9
aF21.0
aF21.0
aF21.0
aF21.1
aF21.1
aF21.2
aF21.2
aF21.3
aF21.3
aF21.3
aF21.4
aF21.4
aF21.4
aF21.4
aF21.5
aF21.5
aF21.6
aF21.6
aF21.6
aF21.7
aF21.7
aF21.8
aF21.9
aF21.9
aF21.9
aF22.0
aF22.0
aF22.0
aF22.0
aF22.1
aF22.1
aF22.1
aF22.2
aF22.2
aF22.2
aF22.2
aF22.2
aF22.3
aF22.4
aF22.4
aF22.5
aF22.5
aF22.6
aF22.6
aF22.7
aF22.7
aF22.8
aF22.9
aF22.9
aF22.9
aF22.9
aF23.0
aF23.0
aF23.0
aF23.1
aF23.2
aF23.2
aF23.3
aF23.4
aF23.5
aF23.5
aF23.5
aF23.6
aF23.6
aF23.6
aF23.6
aF23.7
aF23.7
aF23.7
aF23.8
aF23.8
aF23.9
aF24.0
aF24.0
aF24.0
aF24.0
aF24.1
aF24.1
aF24.1
aF24.1
aF24.2
aF24.3
aF24.3
aF24.3
aF24.4
aF24.5
aF24.5
aF24.5
aF24.5
aF24.5
aF24.6
aF24.6
aF24.6
aF24.6
aF24.6
aF24.7
aF24.8
aF24.8
aF24.8
aF24.9
aF24.9
aF24.9
aF24.9
aF24.9
aF25.0
aF25.2
aF25.3
aF25.3
aF25.4
aF25.5
aF25.6
aF25.6
aF25.7
aF25.7
aF25.7
aF25.8
aF25.9
aF25.9
aF25.9
aF25.9
aF26.0
aF26.0
aF26.0
aF26.1
aF26.2
aF26.3
aF26.3
aF26.4
aF26.6
aF26.7
aF26.8
aF26.8
aF26.8
aF26.9
aF26.9
aF26.9
aF26.9
aF26.9
aF26.9
aF26.9
aF27.0
aF27.3
aF27.3
aF27.3
aF27.3
aF27.3
aF27.4
aF27.7
aF27.7
aF27.8
aF27.8
aF27.8
aF27.9
aF27.9
aF27.9
aF27.9
aF28.0
aF28.0
aF28.0
aF28.1
aF28.1
aF28.1
aF28.2
aF28.2
aF28.2
aF28.3
aF28.3
aF28.4
aF28.4
aF28.5
aF28.5
aF28.5
aF28.6
aF28.6
aF29.0
aF29.1
aF29.1
aF29.1
aF29.2
aF29.3
aF29.3
aF29.4
aF29.4
aF29.4
aF29.4
aF29.5
aF29.7
aF29.7
aF30.0
aF30.1
aF30.1
aF30.1
aF30.2
aF30.2
aF30.3
aF30.3
aF30.4
aF30.5
aF30.6
aF30.6
aF30.6
aF30.6
aF30.7
aF30.8
aF30.8
aF31.0
aF31.0
aF31.0
aF31.1
aF31.3
aF31.4
aF31.4
aF31.5
aF31.7
aF31.7
aF31.8
aF31.9
aF31.9
aF32.0
aF32.0
aF32.0
aF32.0
aF32.1
aF32.1
aF32.2
aF32.2
aF32.3
aF32.4
aF32.5
aF32.5
aF32.5
aF32.6
aF32.7
aF32.7
aF32.9
aF32.9
aF32.9
aF32.9
aF32.9
aF33.0
aF33.1
aF33.1
aF33.2
aF33.2
aF33.3
aF33.3
aF33.3
aF33.5
aF33.6
aF33.6
aF33.6
aF33.6
aF33.7
aF33.7
aF33.7
aF33.7
aF33.8
aF33.9
aF34.0
aF34.1
aF34.2
aF34.3
aF34.4
aF34.4
aF34.5
aF34.8
aF34.9
aF34.9
aF34.9
aF35.2
aF35.3
aF35.3
aF35.3
aF35.5
aF35.6
aF35.6
aF35.8
aF35.8
aF35.9
aF36.0
aF36.2
aF36.2
aF36.3
aF36.4
aF36.5
aF36.6
aF36.6
aF36.7
aF36.9
aF37.0
aF37.0
aF37.1
aF37.1
aF37.2
aF37.2
aF37.3
aF37.3
aF37.3
aF37.3
aF37.3
aF37.4
aF37.4
aF37.5
aF37.5
aF37.5
aF37.6
aF37.7
aF37.7
aF37.9
aF37.9
aF38.0
aF38.0
aF38.1
aF38.1
aF38.2
aF38.2
aF38.3
aF38.5
aF38.7
aF38.7
aF38.9
aF38.9
aF38.9
aF39.0
aF39.1
aF39.2
aF39.2
aF39.2
aF39.2
aF39.2
aF39.3
aF39.4
aF39.5
aF39.6
aF39.6
aF39.7
aF39.9
aF40.0
aF40.1
aF40.3
aF40.4
aF40.5
aF40.5
aF40.6
aF40.6
aF40.6
aF40.7
aF40.7
aF40.9
aF41.0
aF41.0
aF41.1
aF41.1
aF41.3
aF41.5
aF41.6
aF41.7
aF41.8
aF41.9
aF42.0
aF42.0
aF42.1
aF42.2
aF42.4
aF42.7
aF42.7
aF42.7
aF42.7
aF42.8
aF42.8
aF43.3
aF43.4
aF43.4
aF43.4
aF43.5
aF43.5
aF43.6
aF43.6
aF43.6
aF43.8
aF43.9
aF43.9
aF44.0
aF44.0
aF44.3
aF44.3
aF44.5
aF44.5
aF44.6
aF44.6
aF44.7
aF44.8
aF44.8
aF45.0
aF45.1
aF45.2
aF45.2
aF45.3
aF45.3
aF45.4
aF45.5
aF45.5
aF45.5
aF45.8
aF46.0
aF46.1
aF46.1
aF46.2
aF46.3
aF46.3
aF46.4
aF46.4
aF46.5
aF46.6
aF46.9
aF47.4
aF47.4
aF47.5
aF47.5
aF47.6
aF47.7
aF47.8
aF47.8
aF48.2
aF48.3
aF48.6
aF48.6
aF48.8
aF48.8
aF48.8
aF48.9
aF48.9
aF49.1
aF49.3
aF49.4
aF49.5
aF49.5
aF49.5
aF49.5
aF49.7
aF49.8
aF49.9
aF50.1
aF50.2
aF50.3
aF50.4
aF50.7
aF50.8
aF50.9
aF51.0
aF51.4
aF51.4
aF51.6
aF51.8
aF52.0
aF52.3
aF52.5
aF52.5
aF52.6
aF52.7
aF52.8
aF52.9
aF52.9
aF53.1
aF53.1
aF53.2
aF53.3
aF53.4
aF53.4
aF53.4
aF53.5
aF53.6
aF53.8
aF53.8
aF54.0
aF54.1
aF54.2
aF54.2
aF54.3
aF54.5
aF54.8
aF54.8
aF54.8
aF54.8
aF55.1
aF55.2
aF55.2
aF55.8
aF55.9
aF56.1
aF56.2
aF56.9
aF56.9
aF57.0
aF57.2
aF57.2
aF57.3
aF57.5
aF57.5
aF57.9
aF58.0
aF58.0
aF58.0
aF58.1
aF58.7
aF58.8
aF58.9
aF59.3
aF59.6
aF59.7
aF59.9
aF60.1
aF60.1
aF60.3
aF60.4
aF60.4
aF60.6
aF60.7
aF60.8
aF60.9
aF61.3
aF61.3
aF61.6
aF62.1
aF62.8
aF63.1
aF63.4
aF63.4
aF63.5
aF63.7
aF63.7
aF63.8
aF63.8
aF63.9
aF64.0
aF64.1
aF64.1
aF64.2
aF64.4
aF64.7
aF64.7
aF65.0
aF65.5
aF65.9
aF66.1
aF66.1
aF66.5
aF66.6
aF66.9
aF67.0
aF67.5
aF68.3
aF68.3
aF68.4
aF68.6
aF68.9
aF68.9
aF69.0
aF69.2
aF69.3
aF69.5
aF70.3
aF70.5
aF70.9
aF71.2
aF71.8
aF71.9
aF71.9
aF71.9
aF72.0
aF72.3
aF73.1
aF73.3
aF73.4
aF73.4
aF74.4
aF74.7
aF74.9
aF75.0
aF75.2
aF75.3
aF75.6
aF75.6
aF75.7
aF75.7
aF75.9
aF76.5
aF76.5
aF76.8
aF76.8
aF76.8
aF77.2
aF77.4
aF77.4
aF77.6
aF77.6
aF77.7
aF78.0
aF78.2
aF78.3
aF78.5
aF78.6
aF78.7
aF78.8
aF78.9
aF79.0
aF79.0
aF79.1
aF79.4
aF79.6
aF79.7
aF79.7
aF79.8
aF80.0
aF80.2
aF80.3
aF80.4
aF80.7
aF80.9
aF81.2
aF81.3
aF81.5
aF81.6
aF81.7
aF81.9
aF81.9
aF82.1
aF82.5
aF82.6
aF83.1
aF83.2
aF83.5
aF83.5
aF83.8
aF84.3
aF84.5
aF84.6
aF84.9
aF85.5
aF85.9
aF86.2
aF86.3
aF87.3
aF87.6
aF88.3
aF88.3
aF88.6
aF88.7
aF88.8
aF89.0
aF89.0
aF90.3
aF91.5
aF91.6
aF92.0
aF92.4
aF96.1
aF97.9
aF99.3
aF101.5
aF102.0
aF107.1
aF109.3
aF110.3
aF123.1
aF124.4
aF132.4
aF133.2
aF133.2
aF134.6
aF136.3
aF136.5
aF139.7
aF139.7
aF146.7
aF149.1
aF150.7
aF157.8
aF162.2
aF164.0
aF164.9
aF168.7
aF174.1
aF180.7
aF181.6
a.