(lp0
F32.3
aF33.7
aF33.7
aF35.1
aF35.1
aF35.1
aF36.3
aF37.5
aF37.5
aF38.6
aF38.6
aF39.8
aF39.8
aF41.0
aF41.0
aF41.0
aF42.2
aF42.2
aF43.7
aF43.7
aF45.6
aF45.6
aF47.4
aF47.4
aF48.9
aF48.9
aF49.0
aF49.0
aF49.0
aF49.1
aF49.1
aF49.1
aF49.4
aF49.9
aF49.9
aF50.8
aF52.4
aF52.4
aF53.5
aF53.5
aF54.7
aF54.7
aF56.2
aF56.2
aF56.2
aF57.5
aF58.6
aF58.6
aF58.6
aF59.8
aF59.8
aF60.9
aF60.9
aF62.2
aF62.2
aF62.2
aF63.5
aF64.7
aF64.7
aF65.8
aF65.8
aF66.9
aF66.9
aF66.9
aF67.9
aF67.9
aF67.9
aF69.0
aF70.0
aF70.0
aF70.0
aF71.4
aF71.4
aF71.4
aF72.8
aF72.8
aF74.0
aF74.0
aF74.0
aF75.2
aF76.1
aF76.1
aF77.3
aF77.3
aF78.4
aF78.4
aF79.6
aF79.6
aF80.7
aF81.9
aF81.9
aF82.9
aF82.9
aF84.2
aF84.2
aF85.4
aF85.4
aF85.4
aF86.6
aF87.8
aF97.0
aF98.2
aF99.4
aF99.4
aF100.5
aF100.5
aF100.5
aF102.9
aF102.9
aF137.0
aF206.0
aF207.1
aF207.1
aF208.4
aF208.4
aF209.6
aF209.6
aF210.9
aF212.2
aF212.2
aF212.2
aF212.9
aF214.5
aF215.8
aF215.8
aF217.6
aF217.6
aF217.6
aF217.8
aF218.1
aF219.3
aF219.6
aF219.6
aF219.6
aF220.9
aF220.9
aF222.2
aF222.2
aF223.9
aF223.9
aF225.7
aF227.9
aF227.9
aF227.9
aF228.1
aF229.8
aF229.8
aF231.5
aF231.5
aF231.5
aF232.5
aF232.5
aF234.5
aF236.8
aF236.8
aF236.8
aF238.4
aF238.4
aF239.2
aF239.2
aF240.2
aF240.2
aF240.9
aF241.4
aF241.4
aF241.4
aF242.1
aF242.1
aF242.3
aF242.3
aF243.0
aF243.0
aF243.0
aF243.7
aF244.2
aF244.2
aF244.2
aF244.3
aF244.6
aF244.6
aF245.2
aF245.2
aF246.4
aF246.4
aF247.7
aF249.1
aF249.1
aF249.1
aF250.7
aF250.7
aF252.2
aF252.2
aF253.7
aF253.7
aF255.2
aF255.2
aF256.7
aF256.7
aF258.1
aF258.1
aF258.1
aF259.1
aF259.1
aF260.5
aF260.5
aF261.7
aF262.2
aF262.2
aF262.2
aF263.4
aF263.4
aF264.5
aF264.5
aF265.9
aF265.9
aF267.7
aF268.0
aF268.0
aF268.7
aF268.7
aF268.7
aF269.1
aF269.6
aF269.6
aF269.6
aF271.3
aF271.3
aF272.9
aF274.8
aF278.9
aF278.9
aF278.9
aF281.5
aF281.5
aF284.9
aF284.9
aF286.7
aF286.7
aF288.2
aF289.5
aF289.5
aF289.5
aF290.5
aF290.5
aF291.4
aF291.4
aF291.8
aF291.8
aF291.9
aF291.9
aF292.5
aF292.5
aF292.5
aF292.7
aF292.7
aF293.4
aF293.4
aF294.0
aF294.0
aF295.2
aF296.6
aF296.6
aF296.6
aF297.6
aF298.4
aF298.4
aF298.8
aF299.0
aF299.0
aF299.4
aF300.2
aF300.2
aF300.2
aF301.0
aF301.0
aF301.7
aF301.7
aF302.9
aF302.9
aF303.7
aF303.7
aF304.4
aF304.4
aF304.8
aF304.8
aF305.1
aF305.1
aF305.2
aF305.2
aF305.4
aF305.4
aF305.6
aF305.6
aF305.7
aF305.7
aF305.9
aF305.9
aF305.9
aF306.1
aF307.0
aF309.0
aF309.0
aF309.0
aF310.8
aF310.8
aF312.7
aF312.7
aF312.7
aF313.1
aF314.2
aF314.2
aF315.4
aF316.7
aF316.7
aF316.7
aF318.0
aF318.0
aF319.4
aF319.4
aF321.0
aF321.0
aF322.1
aF323.5
aF323.5
aF323.5
aF324.2
aF325.2
aF325.2
aF325.2
aF325.2
aF326.3
aF326.3
aF327.3
aF327.3
aF327.5
aF327.5
aF328.3
aF328.3
aF330.0
aF330.0
aF331.5
aF332.3
aF332.3
aF334.6
aF334.6
aF334.6
aF336.8
aF336.8
aF339.2
aF339.2
aF342.0
aF342.0
aF344.2
aF346.2
aF346.2
aF346.2
aF348.3
aF348.3
aF350.1
aF350.1
aF351.4
aF351.4
aF352.8
aF354.8
aF354.8
aF354.8
aF356.4
aF356.4
aF357.7
aF357.7
aF357.7
aF358.3
aF358.3
aF359.2
aF359.6
aF359.6
aF359.6
aF359.7
aF359.7
aF360.4
aF360.4
aF361.0
aF361.0
aF361.0
aF361.0
aF361.1
aF361.2
aF361.2
aF361.2
aF361.4
aF361.4
aF361.9
aF361.9
aF362.6
aF362.6
aF363.1
aF363.1
aF363.1
aF364.0
aF364.0
aF365.4
aF365.4
aF377.7
aF377.7
aF378.7
aF378.7
aF379.7
aF379.7
aF380.7
aF380.7
aF380.7
aF407.1
aF442.3
aF442.3
aF454.0
aF457.5
aF457.7
aF457.9
aF457.9
aF458.1
aF460.0
aF460.0
aF460.3
aF460.9
aF460.9
aF461.5
aF461.5
aF461.7
aF462.1
aF462.4
aF462.5
aF462.6
aF462.7
aF462.7
aF463.0
aF463.1
aF466.6
aF466.9
aF467.7
aF470.7
aF471.1
aF471.3
aF471.7
aF471.7
aF471.7
aF472.1
aF472.4
aF472.4
aF472.9
aF473.8
aF474.3
aF475.4
aF475.7
aF476.2
aF476.2
aF476.2
aF476.5
aF477.0
aF477.3
aF477.3
aF477.8
aF477.8
aF478.2
aF478.2
aF478.2
aF478.5
aF478.5
aF478.9
aF478.9
aF479.1
aF479.1
aF479.5
aF479.5
aF479.7
aF479.7
aF479.7
aF479.9
aF480.1
aF480.1
aF480.1
aF480.3
aF480.3
aF480.6
aF480.6
aF480.7
aF480.7
aF481.0
aF481.0
aF481.1
aF481.6
aF481.6
aF481.6
aF482.2
aF482.8
aF482.8
aF483.4
aF483.4
aF484.2
aF484.2
aF484.2
aF484.6
aF484.6
aF484.6
aF484.8
aF484.9
aF484.9
aF485.1
aF485.1
aF485.1
aF485.4
aF485.4
aF485.5
aF485.6
aF485.6
aF485.6
aF485.8
aF486.2
aF486.2
aF486.3
aF486.3
aF486.7
aF486.7
aF487.1
aF487.1
aF487.1
aF487.6
aF487.6
aF487.7
aF487.7
aF488.1
aF488.1
aF488.4
aF488.4
aF488.7
aF488.7
aF492.1
aF493.1
aF494.5
aF494.7
aF494.7
aF494.9
aF494.9
aF495.0
aF495.0
aF495.0
aF495.2
aF495.7
aF495.7
aF496.0
aF496.3
aF496.3
aF496.8
aF496.8
aF497.2
aF497.2
aF497.8
aF497.8
aF497.9
aF498.3
aF498.3
aF498.4
aF498.4
aF499.0
aF499.2
aF499.3
aF499.8
aF500.4
aF500.4
aF501.2
aF501.6
aF502.8
aF502.8
aF502.8
aF504.1
aF504.1
aF505.6
aF505.6
aF507.1
aF507.1
aF508.4
aF508.4
aF509.8
aF509.8
aF511.0
aF511.0
aF511.0
aF511.7
aF511.7
aF512.4
aF512.4
aF513.3
aF514.1
aF514.1
aF514.1
aF515.0
aF515.0
aF517.1
aF517.1
aF521.2
aF521.2
aF521.5
aF522.4
aF522.4
aF522.4
aF522.4
aF523.6
aF523.6
aF524.6
aF524.6
aF524.6
aF525.7
aF525.7
aF525.7
aF526.2
aF526.2
aF526.2
aF526.4
aF526.4
aF526.5
aF526.5
aF526.5
aF526.5
aF526.5
aF526.5
aF526.5
aF526.7
aF526.7
aF526.7
aF527.0
aF527.0
aF527.2
aF527.2
aF527.2
aF527.2
aF527.5
aF527.5
aF527.5
aF527.5
aF527.6
aF527.6
aF527.6
aF527.7
aF527.7
aF527.8
aF527.8
aF527.8
aF527.8
aF527.8
aF528.0
aF528.0
aF528.1
aF528.1
aF528.1
aF528.1
aF528.2
aF528.2
aF528.2
aF528.2
aF528.2
aF528.2
aF528.2
aF528.2
aF528.5
aF528.5
aF528.5
aF529.0
aF529.0
aF529.2
aF529.3
aF532.0
aF532.0
aF532.0
aF532.9
aF532.9
aF533.4
aF533.4
aF533.8
aF533.8
aF548.7
aF548.9
aF548.9
aF548.9
aF548.9
aF549.0
aF549.5
aF549.5
aF563.3
aF565.0
aF565.3
aF565.5
aF565.5
aF565.6
aF565.6
aF565.7
aF565.7
aF565.8
aF565.8
aF566.0
aF566.0
aF566.0
aF566.2
aF566.6
aF566.6
aF566.6
aF566.9
aF566.9
aF566.9
aF567.2
aF567.2
aF567.2
aF567.9
aF567.9
aF567.9
aF567.9
aF594.2
aF759.5
aF782.8
aF782.8
aF782.8
aF783.3
aF783.4
aF783.6
aF783.9
aF783.9
aF783.9
aF784.1
aF784.1
aF784.3
aF784.3
aF784.4
aF784.6
aF784.6
aF784.6
aF784.8
aF784.8
aF785.3
aF785.7
aF785.8
aF785.8
aF785.8
aF786.1
aF786.1
aF786.2
aF786.3
aF786.3
aF786.4
aF786.5
aF786.5
aF786.5
aF786.5
aF786.7
aF786.7
aF786.7
aF786.7
aF786.8
aF786.8
aF787.1
aF787.1
aF787.2
aF787.2
aF787.5
aF787.7
aF812.1
aF812.1
aF813.2
aF813.2
aF814.6
aF814.6
aF815.8
aF815.8
aF816.7
aF817.2
aF817.2
aF818.2
aF818.2
aF854.8
aF856.0
aF856.0
aF857.0
aF857.0
aF858.1
aF859.3
aF859.3
aF859.3
aF860.4
aF860.4
aF861.3
aF861.3
aF862.3
aF862.3
aF863.0
aF863.0
aF864.1
aF864.1
aF864.1
aF864.8
aF864.8
aF865.6
aF865.6
aF866.4
aF866.4
aF866.9
aF867.6
aF867.6
aF867.6
aF868.3
aF868.3
aF869.2
aF869.2
aF869.8
aF870.4
aF870.4
aF871.6
aF871.6
aF872.5
aF872.5
aF872.5
aF873.7
aF873.7
aF875.1
aF875.1
aF877.0
aF878.8
aF878.8
aF878.8
aF880.7
aF880.7
aF883.0
aF883.0
aF885.5
aF885.5
aF888.4
aF890.9
aF890.9
aF890.9
aF891.9
aF891.9
aF893.2
aF893.2
aF893.7
aF893.9
aF893.9
aF894.4
aF894.4
aF894.6
aF894.6
aF894.6
aF895.0
aF895.4
aF895.4
aF895.4
aF895.5
aF895.5
aF895.6
aF896.1
aF896.1
aF896.1
aF896.2
aF896.2
aF896.2
aF896.5
aF896.5
aF896.5
aF896.5
aF897.1
aF897.1
aF897.1
aF897.1
aF897.1
aF897.2
aF897.2
aF897.2
aF897.2
aF897.2
aF897.4
aF897.4
aF897.4
aF897.5
aF897.6
aF897.6
aF897.6
aF897.7
aF897.8
aF898.0
aF898.0
aF898.1
aF898.1
aF898.1
aF898.1
aF898.6
aF899.3
aF899.3
aF899.3
aF900.2
aF900.2
aF900.2
aF901.0
aF901.0
aF901.7
aF901.7
aF902.2
aF903.0
aF903.0
aF903.0
aF903.4
aF903.5
aF903.5
aF903.5
aF903.5
aF903.5
aF903.5
aF903.5
aF903.6
aF903.6
aF903.7
aF903.7
aF903.7
aF903.7
aF903.9
aF903.9
aF903.9
aF904.0
aF904.0
aF904.0
aF904.0
aF904.1
aF904.1
aF904.4
aF904.4
aF904.4
aF904.5
aF904.5
aF904.5
aF904.5
aF904.5
aF904.6
aF904.6
aF904.7
aF904.7
aF905.0
aF905.0
aF905.3
aF905.3
aF905.7
aF905.7
aF905.7
aF906.0
aF906.0
aF906.3
aF906.3
aF906.9
aF906.9
aF907.2
aF907.7
aF907.7
aF907.7
aF907.8
aF907.8
aF907.8
aF907.8
aF907.8
aF907.9
aF907.9
aF908.3
aF908.3
aF908.3
aF908.6
aF908.6
aF908.8
aF908.8
aF908.8
aF908.9
aF908.9
aF909.2
aF909.2
aF909.2
aF909.2
aF909.2
aF909.2
aF909.5
aF909.5
aF910.0
aF910.0
aF910.3
aF910.5
aF910.5
aF910.5
aF910.7
aF910.7
aF910.9
aF910.9
aF911.1
aF911.1
aF911.6
aF911.6
aF911.7
aF911.7
aF911.7
aF912.1
aF912.1
aF912.5
aF912.5
aF912.8
aF912.8
aF913.1
aF913.5
aF913.5
aF913.5
aF914.0
aF914.0
aF914.2
aF914.2
aF914.6
aF914.6
aF915.1
aF915.1
aF915.1
aF915.1
aF915.5
aF915.5
aF915.5
aF915.7
aF915.7
aF916.1
aF916.1
aF916.5
aF917.0
aF917.0
aF917.0
aF917.4
aF917.4
aF917.7
aF917.7
aF918.2
aF918.2
aF918.7
aF919.3
aF919.3
aF919.3
aF919.6
aF919.6
aF920.3
aF920.3
aF920.3
aF920.6
aF920.6
aF921.2
aF921.8
aF921.8
aF921.8
aF922.4
aF922.4
aF923.1
aF923.1
aF923.2
aF923.2
aF923.5
aF923.5
aF923.9
aF923.9
aF924.0
aF924.1
aF924.1
aF924.1
aF924.3
aF924.3
aF924.4
aF924.4
aF924.9
aF924.9
aF924.9
aF925.2
aF925.2
aF926.0
aF926.0
aF926.6
aF926.6
a.