(lp0
F0.6
aF0.6
aF1.6
aF1.6
aF1.8
aF1.8
aF1.8
aF2.0
aF2.2
aF2.2
aF2.3
aF2.5
aF2.8
aF2.8
aF2.8
aF2.9
aF3.1
aF3.3
aF3.3
aF3.3
aF3.4
aF3.5
aF3.5
aF3.5
aF3.5
aF3.5
aF4.2
aF4.2
aF4.3
aF4.3
aF4.4
aF4.6
aF4.6
aF4.7
aF4.7
aF4.9
aF4.9
aF5.2
aF5.3
aF5.3
aF5.4
aF5.4
aF5.4
aF5.5
aF5.5
aF5.6
aF5.6
aF5.7
aF5.7
aF5.8
aF5.8
aF6.1
aF6.1
aF6.3
aF6.3
aF6.5
aF6.5
aF6.6
aF6.8
aF6.8
aF6.8
aF6.8
aF7.1
aF7.3
aF7.3
aF7.3
aF7.6
aF7.6
aF7.6
aF7.9
aF8.0
aF8.0
aF8.1
aF8.1
aF8.9
aF9.1
aF9.1
aF9.2
aF9.2
aF9.2
aF9.5
aF9.5
aF9.8
aF9.8
aF10.1
aF10.1
aF10.8
aF11.0
aF11.0
aF11.1
aF11.1
aF11.2
aF11.2
aF11.4
aF11.7
aF11.7
aF11.7
aF11.7
aF11.7
aF11.8
aF11.8
aF12.0
aF12.0
aF12.2
aF12.2
aF12.3
aF12.4
aF12.4
aF12.4
aF12.4
aF12.4
aF12.5
aF12.5
aF12.7
aF12.7
aF12.7
aF12.7
aF12.7
aF12.8
aF12.8
aF12.8
aF13.0
aF13.0
aF13.0
aF13.1
aF13.1
aF13.1
aF13.1
aF13.3
aF13.4
aF13.4
aF13.4
aF13.4
aF13.8
aF13.8
aF13.8
aF14.0
aF14.0
aF14.1
aF14.1
aF14.1
aF14.1
aF14.2
aF14.2
aF14.4
aF14.4
aF14.4
aF14.5
aF14.5
aF14.5
aF14.6
aF14.8
aF14.8
aF14.9
aF14.9
aF15.0
aF15.0
aF15.2
aF15.2
aF15.3
aF15.5
aF15.5
aF15.5
aF15.5
aF15.5
aF15.5
aF15.6
aF15.6
aF15.6
aF15.6
aF15.6
aF15.6
aF15.7
aF15.7
aF15.9
aF15.9
aF15.9
aF16.1
aF16.5
aF16.5
aF16.6
aF16.6
aF16.6
aF16.7
aF16.7
aF16.7
aF16.9
aF16.9
aF16.9
aF16.9
aF17.0
aF17.0
aF17.1
aF17.1
aF17.1
aF17.2
aF17.2
aF17.2
aF17.5
aF17.5
aF17.5
aF17.8
aF17.8
aF17.8
aF17.8
aF17.8
aF17.8
aF17.9
aF17.9
aF18.2
aF18.2
aF18.3
aF18.4
aF18.4
aF18.5
aF18.5
aF18.6
aF18.7
aF18.7
aF18.7
aF18.9
aF18.9
aF19.0
aF19.0
aF19.1
aF19.1
aF19.2
aF19.2
aF19.2
aF19.6
aF19.6
aF19.6
aF19.6
aF19.7
aF19.7
aF19.7
aF19.9
aF19.9
aF20.0
aF20.0
aF20.1
aF20.1
aF20.1
aF20.1
aF20.4
aF20.4
aF20.6
aF20.7
aF20.7
aF20.7
aF20.7
aF20.7
aF20.8
aF20.8
aF20.9
aF20.9
aF21.1
aF21.1
aF21.1
aF21.1
aF21.1
aF21.2
aF21.3
aF21.3
aF21.3
aF21.3
aF21.4
aF21.5
aF21.5
aF21.5
aF21.7
aF21.8
aF21.8
aF22.0
aF22.0
aF22.1
aF22.3
aF22.3
aF22.4
aF22.5
aF22.5
aF22.6
aF22.8
aF22.8
aF22.9
aF22.9
aF23.1
aF23.2
aF23.2
aF23.4
aF23.6
aF23.6
aF23.6
aF23.7
aF23.7
aF23.7
aF23.7
aF23.8
aF23.8
aF23.8
aF23.8
aF24.0
aF24.0
aF24.1
aF24.1
aF24.1
aF24.2
aF24.2
aF24.2
aF24.6
aF24.7
aF24.8
aF24.9
aF25.0
aF25.0
aF25.2
aF25.2
aF25.3
aF25.4
aF25.4
aF25.5
aF25.5
aF25.9
aF25.9
aF25.9
aF25.9
aF26.0
aF26.2
aF26.2
aF26.2
aF26.2
aF26.2
aF26.6
aF26.6
aF26.9
aF26.9
aF27.1
aF27.1
aF27.2
aF27.2
aF27.2
aF27.3
aF27.3
aF27.7
aF27.7
aF27.7
aF28.0
aF28.0
aF28.0
aF28.1
aF28.1
aF28.2
aF28.3
aF28.3
aF28.3
aF28.3
aF28.3
aF28.3
aF28.3
aF28.3
aF28.3
aF28.5
aF28.5
aF28.5
aF28.8
aF28.8
aF28.8
aF28.8
aF28.8
aF29.0
aF29.0
aF29.1
aF29.2
aF29.4
aF29.4
aF29.4
aF29.4
aF29.4
aF29.4
aF29.4
aF29.4
aF29.4
aF29.4
aF29.6
aF29.6
aF29.7
aF29.8
aF29.8
aF30.0
aF30.0
aF30.2
aF30.3
aF30.3
aF30.6
aF30.7
aF30.8
aF30.8
aF30.9
aF30.9
aF30.9
aF31.0
aF31.0
aF31.0
aF31.0
aF31.0
aF31.1
aF31.1
aF31.1
aF31.1
aF31.2
aF31.5
aF31.5
aF31.5
aF31.6
aF31.6
aF31.8
aF31.8
aF31.8
aF31.9
aF31.9
aF32.0
aF32.0
aF32.1
aF32.2
aF32.2
aF32.2
aF32.2
aF32.6
aF32.6
aF32.6
aF32.6
aF32.6
aF32.7
aF32.7
aF32.7
aF32.7
aF32.7
aF32.7
aF33.2
aF33.2
aF33.3
aF33.3
aF33.3
aF33.4
aF33.4
aF33.5
aF33.5
aF33.6
aF33.6
aF33.6
aF33.7
aF33.7
aF33.8
aF33.8
aF34.1
aF34.1
aF34.3
aF34.3
aF34.4
aF34.5
aF34.6
aF34.8
aF34.8
aF35.1
aF35.1
aF35.4
aF35.4
aF35.5
aF35.5
aF35.5
aF35.6
aF35.6
aF35.6
aF35.6
aF35.6
aF35.7
aF35.8
aF35.8
aF35.8
aF35.8
aF35.8
aF36.1
aF36.1
aF36.2
aF36.2
aF36.5
aF36.5
aF36.5
aF36.7
aF36.7
aF36.8
aF36.8
aF36.9
aF36.9
aF36.9
aF36.9
aF36.9
aF37.0
aF37.1
aF37.2
aF37.2
aF37.2
aF37.3
aF37.3
aF37.3
aF37.4
aF37.4
aF37.8
aF37.8
aF38.1
aF38.1
aF38.2
aF38.2
aF38.2
aF38.3
aF38.5
aF38.5
aF38.6
aF38.6
aF39.0
aF39.0
aF39.0
aF39.2
aF39.2
aF39.2
aF39.2
aF39.3
aF39.3
aF39.3
aF39.6
aF39.7
aF39.7
aF39.9
aF39.9
aF40.2
aF40.2
aF40.2
aF40.2
aF40.2
aF40.2
aF40.3
aF40.3
aF40.3
aF40.5
aF40.6
aF40.7
aF40.7
aF40.7
aF40.7
aF40.8
aF40.8
aF41.1
aF41.1
aF41.1
aF41.1
aF41.1
aF41.3
aF41.3
aF41.3
aF41.3
aF41.5
aF41.6
aF41.6
aF41.8
aF41.9
aF41.9
aF41.9
aF42.0
aF42.0
aF42.0
aF42.2
aF42.2
aF42.2
aF42.3
aF42.3
aF42.6
aF42.6
aF42.6
aF42.6
aF42.6
aF42.6
aF42.6
aF42.7
aF42.7
aF42.8
aF42.8
aF43.2
aF43.2
aF43.2
aF43.3
aF43.4
aF43.5
aF43.5
aF43.8
aF43.8
aF43.9
aF43.9
aF43.9
aF44.0
aF44.1
aF44.1
aF44.5
aF44.5
aF44.5
aF44.5
aF44.5
aF44.5
aF44.8
aF44.8
aF44.8
aF44.8
aF44.8
aF44.9
aF45.1
aF45.1
aF45.1
aF45.2
aF45.2
aF45.2
aF45.4
aF45.4
aF45.4
aF46.0
aF46.0
aF46.0
aF46.0
aF46.2
aF46.2
aF46.2
aF46.2
aF46.2
aF46.2
aF46.4
aF46.8
aF46.8
aF46.9
aF46.9
aF47.0
aF47.0
aF47.0
aF47.0
aF47.1
aF47.1
aF47.3
aF47.3
aF47.6
aF47.8
aF47.8
aF47.8
aF47.9
aF47.9
aF47.9
aF47.9
aF48.1
aF48.1
aF48.3
aF48.3
aF48.3
aF48.4
aF48.7
aF48.8
aF48.9
aF48.9
aF48.9
aF49.0
aF49.0
aF49.1
aF49.4
aF49.4
aF49.5
aF49.5
aF49.5
aF50.1
aF50.1
aF50.3
aF50.3
aF50.4
aF50.4
aF50.5
aF50.5
aF50.6
aF51.1
aF51.2
aF51.2
aF51.2
aF51.4
aF51.4
aF51.6
aF51.7
aF51.7
aF51.8
aF51.9
aF51.9
aF51.9
aF52.2
aF52.3
aF52.3
aF52.3
aF52.5
aF52.8
aF53.0
aF53.0
aF53.2
aF53.2
aF53.3
aF53.3
aF53.3
aF53.3
aF53.6
aF53.6
aF53.7
aF53.7
aF53.8
aF54.0
aF54.2
aF54.2
aF54.3
aF54.3
aF54.5
aF54.5
aF54.5
aF54.6
aF54.6
aF54.7
aF54.7
aF54.7
aF54.7
aF55.5
aF55.5
aF55.7
aF55.7
aF55.7
aF55.7
aF55.9
aF56.0
aF56.0
aF56.0
aF56.4
aF56.5
aF56.5
aF56.6
aF56.6
aF56.7
aF56.8
aF56.8
aF57.0
aF57.0
aF57.2
aF57.7
aF57.7
aF57.8
aF57.8
aF57.9
aF58.0
aF58.2
aF58.2
aF58.3
aF58.4
aF58.4
aF58.9
aF58.9
aF59.1
aF59.1
aF59.1
aF59.1
aF59.7
aF59.7
aF59.7
aF59.7
aF59.7
aF60.0
aF60.0
aF60.1
aF60.1
aF60.4
aF60.5
aF60.5
aF60.9
aF61.2
aF61.7
aF61.7
aF61.8
aF61.8
aF62.1
aF62.4
aF62.4
aF62.4
aF62.4
aF62.4
aF62.4
aF62.6
aF62.9
aF62.9
aF63.4
aF63.4
aF63.4
aF63.5
aF63.5
aF63.5
aF63.8
aF63.8
aF63.8
aF63.8
aF64.1
aF64.1
aF64.2
aF64.6
aF64.7
aF64.7
aF64.9
aF65.0
aF65.0
aF65.4
aF65.4
aF65.4
aF65.8
aF65.9
aF65.9
aF65.9
aF66.0
aF66.0
aF66.0
aF66.7
aF66.7
aF66.7
aF66.8
aF66.8
aF66.9
aF67.0
aF67.0
aF67.1
aF67.2
aF67.2
aF67.6
aF68.0
aF68.3
aF68.3
aF68.3
aF68.4
aF68.7
aF69.2
aF69.2
aF69.9
aF69.9
aF70.2
aF70.2
aF70.3
aF70.3
aF70.3
aF70.4
aF70.4
aF70.4
aF70.4
aF70.4
aF70.5
aF70.5
aF70.5
aF70.8
aF70.8
aF71.0
aF71.0
aF71.0
aF71.5
aF71.5
aF71.8
aF71.9
aF71.9
aF71.9
aF72.1
aF72.1
aF72.1
aF72.3
aF72.6
aF72.6
aF72.6
aF72.8
aF72.8
aF72.9
aF73.0
aF73.0
aF73.0
aF73.2
aF73.2
aF73.4
aF73.4
aF73.4
aF73.5
aF73.5
aF73.7
aF73.7
aF73.8
aF73.8
aF74.3
aF74.4
aF74.4
aF74.4
aF74.7
aF74.8
aF74.8
aF74.8
aF74.8
aF74.9
aF74.9
aF74.9
aF75.0
aF75.0
aF75.0
aF75.3
aF75.8
aF75.8
aF75.8
aF75.8
aF76.8
aF76.9
aF77.0
aF77.0
aF77.0
aF77.0
aF77.2
aF77.6
aF77.7
aF78.0
aF78.0
aF78.1
aF78.6
aF78.6
aF78.6
aF78.7
aF78.9
aF79.0
aF79.3
aF79.3
aF80.0
aF80.0
aF80.1
aF80.1
aF81.1
aF81.1
aF81.1
aF81.6
aF81.6
aF82.2
aF83.2
aF83.2
aF83.3
aF83.3
aF83.3
aF84.0
aF84.6
aF84.9
aF84.9
aF84.9
aF85.0
aF85.0
aF85.0
aF86.1
aF86.1
aF86.1
aF86.2
aF86.4
aF87.5
aF87.5
aF87.6
aF88.3
aF88.8
aF88.8
aF88.9
aF88.9
aF89.2
aF90.1
aF90.1
aF90.4
aF90.7
aF90.8
aF91.4
aF91.4
aF91.5
aF92.6
aF92.6
aF92.6
aF92.6
aF92.7
aF92.7
aF92.7
aF93.9
aF94.1
aF94.5
aF94.6
aF94.6
aF94.6
aF95.4
aF95.4
aF95.6
aF95.6
aF95.8
aF95.8
aF96.2
aF96.8
aF96.8
aF97.1
aF97.1
aF98.2
aF98.2
aF98.5
aF98.5
aF99.2
aF100.0
aF100.0
aF101.2
aF101.2
aF101.2
aF102.8
aF102.8
aF103.1
aF104.3
aF105.6
aF105.8
aF105.8
aF108.0
aF110.0
aF111.0
aF112.5
aF115.5
aF121.7
aF132.3
aF132.3
aF132.6
aF138.9
aF141.4
aF141.4
aF141.9
aF145.9
aF165.1
aF165.3
aF166.5
aF166.5
aF167.8
aF167.8
aF169.0
aF169.0
aF170.3
aF170.3
aF170.3
aF173.3
aF186.3
aF187.5
aF187.5
aF188.7
aF188.7
aF190.0
aF190.0
aF191.3
aF192.5
aF192.5
aF192.5
aF192.5
aF193.5
aF193.5
aF194.7
aF195.9
aF198.1
aF201.2
aF201.2
aF219.3
aF230.8
aF233.5
aF233.5
aF242.3
aF244.9
aF244.9
aF246.4
aF247.3
aF286.6
aF459.3
aF825.1
aF826.8
aF827.0
a.