(lp0
F2.3
aF3.3
aF7.8
aF8.1
aF9.4
aF10.2
aF10.6
aF11.5
aF11.5
aF13.0
aF13.5
aF13.8
aF14.1
aF14.6
aF14.8
aF15.1
aF15.3
aF15.7
aF15.8
aF16.1
aF17.1
aF17.1
aF17.9
aF18.0
aF18.3
aF18.5
aF19.0
aF19.4
aF19.9
aF20.0
aF20.7
aF21.4
aF21.5
aF21.7
aF21.8
aF22.2
aF22.3
aF22.3
aF22.9
aF23.2
aF23.6
aF24.1
aF25.3
aF25.4
aF25.6
aF26.0
aF26.1
aF26.5
aF26.6
aF26.7
aF26.8
aF27.0
aF27.2
aF27.4
aF27.6
aF27.6
aF28.5
aF28.8
aF29.0
aF29.1
aF29.1
aF29.5
aF29.5
aF29.7
aF29.8
aF29.9
aF30.3
aF30.3
aF30.4
aF30.6
aF31.0
aF31.3
aF31.7
aF31.8
aF31.9
aF32.3
aF32.4
aF32.6
aF33.5
aF34.8
aF35.1
aF35.2
aF35.6
aF35.7
aF35.9
aF36.0
aF36.1
aF36.3
aF36.3
aF36.6
aF36.7
aF36.8
aF37.7
aF38.3
aF38.4
aF38.9
aF39.1
aF39.4
aF40.1
aF40.6
aF41.0
aF41.1
aF41.2
aF41.5
aF41.7
aF42.1
aF42.4
aF42.6
aF42.8
aF42.9
aF43.2
aF43.3
aF43.7
aF44.1
aF44.1
aF44.2
aF44.3
aF44.6
aF44.8
aF45.7
aF46.3
aF47.0
aF48.1
aF48.2
aF48.2
aF48.7
aF48.7
aF48.7
aF48.8
aF48.8
aF48.9
aF48.9
aF49.2
aF49.3
aF49.4
aF49.7
aF49.8
aF50.4
aF50.9
aF51.1
aF51.1
aF51.1
aF51.3
aF51.3
aF51.4
aF51.8
aF51.9
aF52.8
aF52.8
aF53.0
aF53.3
aF53.6
aF53.7
aF53.7
aF53.7
aF53.8
aF54.3
aF54.5
aF55.0
aF55.4
aF56.2
aF56.5
aF56.6
aF56.8
aF56.9
aF57.0
aF57.0
aF57.4
aF57.7
aF57.8
aF58.5
aF58.5
aF58.6
aF58.6
aF58.7
aF59.5
aF59.6
aF60.0
aF60.1
aF60.1
aF60.6
aF61.2
aF61.4
aF61.6
aF62.1
aF62.3
aF62.4
aF62.5
aF62.5
aF62.8
aF63.0
aF63.2
aF63.2
aF63.6
aF64.0
aF64.1
aF64.5
aF64.6
aF65.0
aF65.2
aF65.5
aF65.6
aF65.7
aF65.8
aF66.3
aF66.5
aF66.6
aF66.6
aF66.7
aF66.7
aF67.0
aF67.7
aF67.8
aF67.9
aF68.0
aF68.4
aF68.6
aF68.8
aF69.0
aF69.1
aF69.1
aF69.4
aF69.7
aF69.8
aF70.2
aF70.5
aF70.5
aF70.6
aF70.6
aF71.5
aF71.7
aF71.8
aF72.2
aF72.3
aF72.5
aF72.9
aF73.3
aF73.7
aF73.9
aF74.0
aF74.1
aF74.4
aF74.7
aF75.1
aF75.1
aF76.2
aF76.3
aF76.4
aF76.5
aF76.7
aF76.8
aF76.8
aF77.0
aF77.7
aF78.2
aF78.4
aF78.6
aF79.0
aF79.1
aF79.2
aF79.9
aF80.2
aF80.3
aF80.4
aF80.5
aF80.6
aF80.6
aF81.1
aF81.3
aF81.4
aF81.4
aF81.4
aF81.5
aF81.5
aF82.0
aF82.3
aF82.5
aF83.0
aF83.5
aF84.2
aF84.4
aF84.5
aF84.7
aF84.7
aF84.8
aF84.9
aF85.1
aF85.3
aF85.3
aF85.3
aF85.5
aF85.5
aF85.8
aF85.9
aF86.0
aF86.1
aF86.2
aF86.3
aF86.6
aF86.7
aF86.8
aF86.9
aF87.3
aF88.2
aF88.2
aF88.5
aF88.8
aF88.9
aF89.0
aF89.5
aF90.0
aF90.1
aF90.2
aF90.4
aF90.5
aF90.7
aF90.8
aF91.0
aF91.1
aF91.1
aF91.2
aF91.5
aF91.6
aF92.2
aF92.6
aF92.7
aF92.7
aF92.9
aF92.9
aF93.3
aF93.5
aF93.9
aF94.0
aF94.1
aF94.2
aF94.4
aF95.8
aF95.9
aF96.1
aF96.4
aF96.5
aF96.7
aF96.8
aF97.4
aF97.5
aF97.8
aF97.8
aF97.8
aF97.8
aF97.9
aF97.9
aF98.5
aF98.5
aF98.8
aF98.9
aF98.9
aF99.1
aF99.5
aF99.5
aF99.6
aF99.6
aF99.8
aF99.9
aF100.4
aF100.7
aF100.8
aF100.8
aF101.3
aF101.8
aF101.8
aF102.2
aF102.6
aF102.7
aF102.9
aF102.9
aF103.3
aF103.4
aF103.9
aF104.1
aF104.8
aF104.8
aF104.9
aF105.3
aF105.5
aF105.8
aF106.0
aF106.1
aF106.3
aF106.4
aF106.4
aF107.0
aF107.3
aF107.4
aF107.6
aF107.6
aF108.0
aF108.1
aF108.2
aF108.3
aF108.3
aF108.8
aF108.9
aF109.2
aF109.6
aF109.8
aF109.8
aF110.2
aF110.3
aF110.4
aF110.7
aF111.8
aF111.9
aF111.9
aF111.9
aF112.7
aF112.8
aF113.0
aF113.0
aF113.2
aF113.9
aF114.1
aF114.2
aF114.4
aF114.6
aF114.8
aF116.0
aF116.1
aF116.4
aF116.8
aF116.9
aF117.5
aF117.5
aF117.6
aF117.7
aF117.9
aF118.0
aF118.0
aF118.9
aF119.0
aF119.2
aF119.7
aF119.9
aF119.9
aF119.9
aF120.6
aF120.8
aF120.8
aF121.1
aF121.1
aF121.2
aF121.6
aF121.6
aF121.8
aF122.2
aF122.2
aF122.8
aF123.3
aF123.5
aF123.8
aF124.1
aF124.2
aF124.3
aF124.4
aF124.5
aF124.8
aF124.9
aF125.1
aF125.1
aF125.6
aF125.7
aF126.0
aF126.0
aF126.1
aF126.3
aF126.5
aF126.7
aF126.7
aF126.8
aF127.1
aF127.2
aF127.4
aF127.5
aF127.7
aF128.0
aF128.3
aF128.3
aF128.5
aF128.9
aF129.1
aF129.2
aF129.9
aF130.1
aF131.2
aF131.3
aF131.3
aF131.3
aF131.5
aF132.1
aF132.5
aF133.0
aF133.1
aF133.1
aF133.2
aF134.4
aF134.4
aF134.5
aF134.7
aF134.8
aF135.3
aF135.5
aF135.6
aF135.6
aF135.8
aF136.0
aF136.3
aF136.6
aF136.7
aF137.0
aF137.0
aF137.4
aF137.4
aF137.8
aF137.9
aF137.9
aF137.9
aF138.1
aF138.1
aF138.1
aF138.3
aF138.5
aF138.6
aF138.8
aF139.2
aF139.2
aF139.3
aF139.4
aF139.5
aF139.5
aF139.7
aF140.2
aF140.3
aF140.7
aF140.8
aF141.1
aF141.1
aF141.2
aF141.2
aF142.5
aF142.8
aF143.0
aF143.0
aF143.2
aF143.8
aF143.8
aF145.1
aF145.2
aF145.3
aF145.4
aF145.5
aF145.5
aF145.8
aF147.4
aF147.5
aF147.6
aF148.0
aF148.1
aF148.2
aF148.4
aF148.4
aF148.6
aF148.8
aF148.8
aF149.0
aF149.1
aF149.1
aF149.6
aF149.7
aF150.9
aF151.7
aF151.7
aF152.0
aF152.1
aF152.3
aF152.5
aF152.6
aF152.7
aF152.8
aF153.0
aF153.0
aF153.0
aF153.8
aF154.7
aF155.8
aF156.0
aF156.0
aF156.6
aF156.6
aF157.2
aF157.4
aF157.7
aF158.7
aF158.7
aF158.8
aF158.9
aF159.1
aF159.2
aF159.3
aF159.5
aF159.9
aF160.2
aF160.2
aF160.3
aF160.4
aF160.5
aF160.7
aF160.9
aF160.9
aF161.1
aF161.2
aF161.3
aF162.0
aF162.3
aF162.4
aF162.9
aF163.6
aF163.6
aF163.7
aF164.0
aF164.0
aF164.1
aF164.2
aF164.4
aF164.7
aF164.8
aF164.8
aF165.2
aF165.7
aF165.8
aF166.1
aF166.1
aF166.2
aF166.5
aF166.9
aF167.3
aF167.4
aF167.7
aF168.2
aF168.4
aF168.7
aF169.2
aF169.3
aF169.4
aF169.7
aF169.7
aF170.0
aF170.0
aF170.4
aF170.5
aF170.5
aF171.1
aF171.5
aF171.8
aF171.8
aF172.1
aF172.2
aF172.5
aF172.7
aF173.2
aF173.3
aF173.5
aF174.6
aF175.5
aF176.2
aF176.6
aF176.6
aF176.8
aF177.4
aF177.5
aF177.9
aF178.2
aF178.6
aF178.6
aF179.0
aF179.1
aF179.2
aF179.8
aF179.8
aF180.5
aF180.6
aF180.6
aF181.1
aF181.3
aF182.1
aF182.5
aF183.9
aF184.1
aF184.2
aF184.4
aF184.6
aF184.7
aF184.9
aF185.2
aF185.7
aF186.0
aF186.0
aF186.1
aF186.5
aF186.6
aF186.6
aF187.0
aF187.3
aF187.3
aF187.3
aF187.8
aF188.5
aF189.0
aF189.2
aF189.5
aF189.5
aF189.7
aF189.8
aF189.8
aF190.1
aF190.4
aF190.4
aF190.6
aF190.8
aF191.0
aF191.0
aF191.0
aF191.1
aF191.7
aF191.7
aF191.8
aF191.9
aF192.1
aF192.3
aF192.4
aF192.6
aF192.6
aF192.8
aF193.2
aF193.3
aF193.6
aF193.7
aF194.1
aF194.1
aF194.3
aF194.4
aF194.6
aF195.4
aF195.5
aF195.7
aF195.7
aF196.1
aF196.1
aF196.4
aF196.6
aF197.3
aF197.5
aF197.6
aF197.7
aF198.5
aF198.6
aF198.6
aF198.6
aF198.7
aF198.8
aF199.1
aF199.1
aF199.1
aF199.7
aF199.9
aF200.2
aF200.8
aF200.8
aF201.1
aF201.2
aF201.9
aF202.7
aF202.7
aF202.9
aF202.9
aF203.0
aF203.1
aF203.3
aF203.4
aF203.5
aF203.9
aF204.0
aF204.0
aF204.1
aF204.1
aF204.8
aF205.0
aF205.1
aF205.3
aF205.5
aF206.2
aF206.7
aF207.0
aF207.2
aF207.5
aF208.5
aF208.6
aF208.8
aF209.0
aF209.3
aF209.4
aF209.9
aF210.0
aF210.3
aF210.8
aF211.2
aF211.4
aF211.5
aF211.8
aF212.1
aF212.1
aF212.1
aF213.2
aF213.2
aF213.6
aF213.8
aF214.0
aF214.5
aF214.5
aF214.7
aF214.7
aF214.8
aF215.0
aF215.2
aF215.5
aF215.8
aF215.9
aF216.5
aF217.7
aF217.9
aF218.2
aF218.3
aF218.4
aF218.5
aF219.4
aF219.8
aF220.5
aF220.5
aF221.1
aF221.2
aF221.8
aF221.8
aF222.2
aF222.8
aF222.9
aF223.5
aF223.7
aF224.1
aF224.1
aF225.9
aF226.1
aF226.2
aF226.5
aF226.7
aF226.8
aF227.4
aF227.8
aF228.2
aF228.3
aF228.6
aF228.9
aF229.1
aF229.4
aF229.9
aF230.1
aF230.5
aF230.6
aF231.2
aF231.7
aF231.9
aF232.1
aF232.2
aF232.3
aF232.4
aF232.4
aF232.8
aF233.1
aF233.4
aF233.8
aF234.0
aF234.1
aF234.1
aF234.3
aF234.4
aF234.8
aF235.8
aF236.1
aF236.2
aF236.6
aF237.5
aF237.6
aF237.6
aF238.1
aF238.8
aF239.0
aF239.1
aF239.5
aF239.8
aF240.0
aF240.3
aF241.0
aF241.3
aF241.3
aF241.4
aF242.2
aF242.3
aF242.3
aF243.1
aF244.1
aF244.3
aF245.0
aF245.1
aF245.2
aF245.5
aF245.6
aF246.0
aF246.5
aF246.9
aF247.6
aF248.5
aF248.5
aF249.5
aF249.7
aF250.3
aF250.9
aF251.0
aF251.1
aF252.0
aF252.1
aF252.2
aF252.8
aF252.8
aF253.1
aF253.7
aF253.7
aF254.6
aF254.9
aF254.9
aF255.0
aF255.6
aF255.7
aF256.2
aF256.6
aF257.1
aF257.3
aF257.4
aF259.4
aF259.6
aF259.6
aF259.7
aF259.7
aF259.7
aF261.4
aF261.5
aF261.8
aF262.6
aF262.8
aF263.5
aF263.6
aF264.1
aF264.3
aF264.4
aF264.5
aF264.7
aF264.9
aF265.2
aF265.6
aF265.6
aF266.0
aF266.9
aF267.9
aF268.2
aF268.5
aF268.5
aF268.9
aF269.0
aF269.2
aF269.6
aF269.7
aF270.3
aF270.5
aF270.8
aF270.9
aF270.9
aF271.1
aF271.4
aF271.7
aF271.9
aF272.1
aF272.5
aF273.0
aF273.1
aF273.2
aF273.5
aF274.2
aF274.4
aF275.0
aF275.5
aF275.6
aF277.3
aF278.4
aF279.0
aF279.0
aF279.2
aF279.6
aF279.9
aF280.2
aF281.3
aF281.7
aF281.8
aF283.3
aF284.7
aF284.9
aF285.0
aF285.0
aF285.2
aF285.3
aF285.7
aF286.0
aF286.0
aF286.4
aF287.4
aF287.7
aF288.3
aF288.8
aF289.4
aF290.5
aF290.7
aF291.1
aF292.1
aF292.4
aF293.3
aF293.9
aF295.1
aF295.2
aF295.3
aF295.7
aF296.2
aF296.3
aF296.5
aF296.6
aF296.9
aF297.7
aF297.9
aF298.5
aF298.6
aF298.8
aF298.8
aF299.0
aF299.4
aF299.7
aF299.9
aF300.2
aF300.8
aF301.5
aF301.9
aF302.8
aF302.9
aF302.9
aF303.0
aF303.9
aF304.2
aF305.4
aF305.7
aF305.8
aF306.0
aF307.0
aF307.0
aF307.2
aF307.3
aF307.5
aF307.9
aF307.9
aF307.9
aF308.1
aF308.1
aF308.3
aF310.5
aF310.7
aF311.3
aF311.7
aF313.5
aF314.0
aF314.3
aF314.4
aF314.9
aF314.9
aF315.1
aF315.2
aF315.3
aF316.0
aF316.1
aF316.9
aF317.4
aF318.0
aF318.0
aF318.0
aF318.9
aF319.8
aF320.3
aF320.4
aF320.7
aF321.1
aF321.1
aF322.3
aF322.7
aF323.5
aF323.8
aF324.2
aF324.4
aF324.5
aF324.7
aF325.3
aF325.5
aF326.1
aF326.3
aF326.7
aF327.0
aF327.1
aF327.7
aF328.1
aF328.4
aF329.1
aF329.1
aF329.5
aF329.9
aF330.1
aF330.6
aF330.7
aF332.1
aF332.3
aF332.5
aF333.1
aF333.5
aF333.8
aF334.2
aF334.4
aF334.7
aF337.0
aF338.5
aF339.1
aF341.1
aF341.8
aF342.4
aF342.7
aF342.8
aF343.6
aF343.7
aF344.0
aF344.5
aF344.6
aF345.0
aF346.7
aF346.8
aF347.1
aF347.2
aF347.7
aF348.6
aF348.7
aF350.1
aF351.1
aF351.6
aF351.7
aF351.7
aF352.2
aF352.6
aF353.2
aF353.2
aF353.3
aF353.8
aF354.5
aF354.6
aF354.8
aF356.4
aF356.5
aF357.4
aF357.6
aF357.6
aF359.0
aF359.5
aF360.0
aF361.6
aF362.5
aF363.0
aF363.1
aF365.0
aF365.0
aF365.7
aF366.4
aF367.7
aF367.8
aF368.1
aF368.1
aF368.5
aF368.6
aF369.0
aF369.1
aF369.7
aF370.3
aF370.4
aF370.8
aF371.3
aF371.7
aF372.3
aF372.5
aF372.5
aF373.2
aF373.8
aF373.8
aF374.5
aF375.9
aF376.2
aF376.2
aF376.3
aF377.2
aF378.2
aF380.2
aF380.6
aF381.1
aF382.8
aF383.3
aF383.4
aF384.0
aF384.3
aF384.4
aF384.8
aF385.6
aF387.9
aF388.1
aF388.3
aF388.5
aF389.6
aF389.9
aF391.6
aF392.9
aF393.6
aF395.1
aF395.3
aF396.0
aF396.6
aF397.0
aF397.7
aF397.9
aF399.7
aF400.3
aF400.4
aF400.5
aF401.0
aF402.2
aF402.6
aF402.7
aF403.0
aF403.3
aF403.8
aF405.3
aF405.6
aF406.2
aF406.8
aF407.7
aF407.7
aF407.8
aF409.5
aF409.5
aF411.7
aF412.0
aF412.8
aF415.5
aF416.3
aF416.5
aF416.9
aF417.4
aF417.7
aF418.5
aF419.9
aF420.1
aF420.4
aF421.2
aF421.5
aF422.3
aF422.4
aF424.0
aF424.5
aF424.6
aF426.5
aF427.1
aF427.7
aF429.1
aF430.8
aF431.7
aF434.0
aF434.4
aF435.0
aF435.4
aF437.0
aF437.2
aF437.2
aF438.1
aF438.9
aF439.0
aF442.5
aF442.6
aF442.7
aF443.0
aF443.3
aF443.6
aF443.7
aF444.0
aF444.4
aF444.6
aF446.1
aF449.8
aF450.2
aF453.3
aF453.7
aF454.5
aF454.8
aF455.1
aF455.5
aF456.1
aF456.5
aF457.9
aF461.3
aF461.6
aF462.4
aF463.5
aF463.9
aF466.7
aF468.3
aF470.9
aF472.7
aF473.0
aF476.9
aF476.9
aF478.1
aF479.9
aF480.7
aF483.0
aF483.9
aF484.7
aF487.4
aF491.7
aF492.4
aF493.9
aF494.5
aF498.1
aF499.4
aF501.0
aF501.9
aF503.0
aF507.7
aF508.3
aF508.6
aF509.2
aF510.7
aF511.6
aF513.5
aF515.7
aF519.9
aF520.4
aF522.4
aF522.8
aF525.3
aF528.1
aF528.6
aF528.9
aF529.6
aF533.0
aF533.7
aF535.0
aF535.9
aF541.7
aF548.1
aF548.7
aF550.7
aF551.1
aF560.0
aF561.2
aF562.6
aF573.5
aF581.1
aF581.5
aF587.5
aF588.4
aF591.8
aF596.0
aF603.7
aF604.0
aF613.4
aF614.2
aF633.0
aF641.8
aF644.0
aF652.0
aF655.4
aF655.5
aF670.8
aF683.9
aF688.8
aF689.2
aF690.5
aF691.3
aF718.8
aF730.4
aF732.9
aF738.9
aF753.9
aF782.8
aF789.8
aF801.8
aF806.1
aF813.1
aF814.5
aF836.0
aF853.7
aF856.4
aF863.5
aF883.6
aF892.1
aF1023.0
aF1070.8
a.