(lp0
F0.5
aF0.8
aF0.8
aF1.0
aF1.1
aF1.2
aF1.2
aF1.3
aF1.5
aF1.5
aF1.6
aF1.6
aF1.7
aF1.7
aF1.7
aF1.8
aF1.8
aF1.8
aF1.9
aF1.9
aF2.0
aF2.0
aF2.0
aF2.0
aF2.0
aF2.1
aF2.1
aF2.2
aF2.3
aF2.4
aF2.4
aF2.4
aF2.5
aF2.5
aF2.5
aF2.6
aF2.6
aF2.7
aF2.7
aF2.8
aF2.8
aF2.9
aF2.9
aF2.9
aF2.9
aF2.9
aF3.0
aF3.0
aF3.0
aF3.1
aF3.2
aF3.2
aF3.2
aF3.3
aF3.3
aF3.3
aF3.3
aF3.4
aF3.4
aF3.4
aF3.5
aF3.5
aF3.5
aF3.5
aF3.5
aF3.5
aF3.5
aF3.6
aF3.6
aF3.7
aF3.7
aF3.8
aF3.8
aF3.8
aF3.9
aF3.9
aF3.9
aF3.9
aF3.9
aF4.0
aF4.0
aF4.0
aF4.0
aF4.1
aF4.1
aF4.1
aF4.2
aF4.2
aF4.2
aF4.2
aF4.2
aF4.2
aF4.2
aF4.3
aF4.3
aF4.3
aF4.3
aF4.3
aF4.4
aF4.4
aF4.4
aF4.4
aF4.4
aF4.4
aF4.4
aF4.4
aF4.4
aF4.4
aF4.5
aF4.5
aF4.5
aF4.6
aF4.6
aF4.6
aF4.6
aF4.6
aF4.6
aF4.6
aF4.6
aF4.7
aF4.7
aF4.8
aF4.8
aF4.8
aF4.8
aF4.8
aF4.8
aF4.8
aF4.9
aF5.0
aF5.0
aF5.0
aF5.0
aF5.0
aF5.1
aF5.1
aF5.1
aF5.2
aF5.2
aF5.2
aF5.2
aF5.2
aF5.2
aF5.2
aF5.3
aF5.3
aF5.3
aF5.3
aF5.3
aF5.3
aF5.4
aF5.4
aF5.4
aF5.4
aF5.4
aF5.4
aF5.5
aF5.5
aF5.5
aF5.5
aF5.5
aF5.5
aF5.5
aF5.5
aF5.5
aF5.5
aF5.6
aF5.6
aF5.6
aF5.6
aF5.6
aF5.7
aF5.7
aF5.8
aF5.8
aF5.8
aF5.8
aF5.8
aF5.9
aF5.9
aF5.9
aF5.9
aF5.9
aF5.9
aF5.9
aF5.9
aF6.0
aF6.1
aF6.1
aF6.1
aF6.2
aF6.2
aF6.2
aF6.2
aF6.2
aF6.2
aF6.2
aF6.3
aF6.3
aF6.3
aF6.3
aF6.3
aF6.4
aF6.4
aF6.4
aF6.5
aF6.5
aF6.5
aF6.6
aF6.6
aF6.6
aF6.6
aF6.6
aF6.7
aF6.7
aF6.7
aF6.8
aF6.8
aF6.8
aF6.8
aF6.8
aF6.8
aF6.9
aF6.9
aF6.9
aF6.9
aF6.9
aF6.9
aF6.9
aF6.9
aF7.0
aF7.0
aF7.0
aF7.0
aF7.0
aF7.0
aF7.0
aF7.0
aF7.1
aF7.1
aF7.1
aF7.1
aF7.1
aF7.2
aF7.2
aF7.2
aF7.2
aF7.2
aF7.2
aF7.2
aF7.2
aF7.3
aF7.3
aF7.3
aF7.3
aF7.3
aF7.3
aF7.3
aF7.3
aF7.4
aF7.4
aF7.4
aF7.4
aF7.4
aF7.4
aF7.4
aF7.5
aF7.5
aF7.6
aF7.6
aF7.6
aF7.6
aF7.6
aF7.6
aF7.6
aF7.7
aF7.7
aF7.7
aF7.7
aF7.7
aF7.8
aF7.8
aF7.8
aF7.8
aF7.9
aF7.9
aF7.9
aF7.9
aF7.9
aF8.0
aF8.0
aF8.0
aF8.0
aF8.0
aF8.0
aF8.0
aF8.0
aF8.1
aF8.1
aF8.2
aF8.2
aF8.2
aF8.2
aF8.2
aF8.2
aF8.2
aF8.3
aF8.3
aF8.3
aF8.3
aF8.4
aF8.4
aF8.4
aF8.5
aF8.5
aF8.5
aF8.5
aF8.5
aF8.5
aF8.5
aF8.5
aF8.6
aF8.6
aF8.6
aF8.7
aF8.7
aF8.7
aF8.8
aF8.8
aF8.8
aF8.8
aF8.8
aF8.9
aF8.9
aF8.9
aF8.9
aF8.9
aF9.0
aF9.0
aF9.0
aF9.0
aF9.1
aF9.1
aF9.1
aF9.1
aF9.2
aF9.2
aF9.2
aF9.2
aF9.2
aF9.3
aF9.3
aF9.3
aF9.3
aF9.3
aF9.3
aF9.3
aF9.4
aF9.4
aF9.4
aF9.4
aF9.4
aF9.5
aF9.5
aF9.5
aF9.5
aF9.5
aF9.6
aF9.6
aF9.6
aF9.6
aF9.6
aF9.6
aF9.6
aF9.7
aF9.7
aF9.7
aF9.7
aF9.7
aF9.7
aF9.7
aF9.7
aF9.8
aF9.8
aF9.8
aF9.8
aF9.9
aF9.9
aF9.9
aF9.9
aF10.0
aF10.0
aF10.0
aF10.0
aF10.0
aF10.0
aF10.1
aF10.1
aF10.1
aF10.1
aF10.2
aF10.2
aF10.2
aF10.2
aF10.2
aF10.2
aF10.2
aF10.3
aF10.3
aF10.3
aF10.3
aF10.3
aF10.3
aF10.3
aF10.3
aF10.3
aF10.4
aF10.4
aF10.4
aF10.4
aF10.4
aF10.5
aF10.5
aF10.5
aF10.5
aF10.5
aF10.6
aF10.6
aF10.6
aF10.7
aF10.7
aF10.7
aF10.7
aF10.7
aF10.7
aF10.7
aF10.8
aF10.8
aF10.8
aF10.8
aF10.8
aF10.8
aF10.8
aF10.8
aF10.8
aF10.8
aF10.8
aF10.8
aF10.9
aF10.9
aF10.9
aF10.9
aF10.9
aF10.9
aF10.9
aF10.9
aF10.9
aF10.9
aF10.9
aF11.0
aF11.0
aF11.0
aF11.1
aF11.1
aF11.1
aF11.1
aF11.1
aF11.1
aF11.1
aF11.2
aF11.2
aF11.2
aF11.2
aF11.2
aF11.2
aF11.2
aF11.2
aF11.2
aF11.2
aF11.3
aF11.3
aF11.3
aF11.3
aF11.3
aF11.4
aF11.4
aF11.4
aF11.4
aF11.4
aF11.4
aF11.4
aF11.5
aF11.5
aF11.5
aF11.5
aF11.5
aF11.5
aF11.5
aF11.5
aF11.5
aF11.6
aF11.6
aF11.6
aF11.6
aF11.6
aF11.6
aF11.6
aF11.7
aF11.7
aF11.7
aF11.7
aF11.7
aF11.7
aF11.8
aF11.8
aF11.8
aF11.8
aF11.9
aF11.9
aF11.9
aF11.9
aF12.0
aF12.0
aF12.0
aF12.0
aF12.0
aF12.1
aF12.1
aF12.1
aF12.1
aF12.2
aF12.2
aF12.2
aF12.2
aF12.2
aF12.2
aF12.2
aF12.2
aF12.2
aF12.3
aF12.3
aF12.3
aF12.3
aF12.4
aF12.4
aF12.4
aF12.4
aF12.4
aF12.4
aF12.4
aF12.4
aF12.5
aF12.5
aF12.5
aF12.5
aF12.5
aF12.5
aF12.6
aF12.6
aF12.6
aF12.6
aF12.6
aF12.6
aF12.6
aF12.6
aF12.6
aF12.6
aF12.7
aF12.7
aF12.7
aF12.7
aF12.7
aF12.7
aF12.7
aF12.7
aF12.7
aF12.7
aF12.7
aF12.7
aF12.7
aF12.7
aF12.8
aF12.8
aF12.8
aF12.8
aF12.8
aF12.9
aF12.9
aF12.9
aF12.9
aF12.9
aF12.9
aF12.9
aF12.9
aF12.9
aF12.9
aF12.9
aF13.0
aF13.0
aF13.0
aF13.0
aF13.0
aF13.0
aF13.1
aF13.1
aF13.1
aF13.1
aF13.1
aF13.1
aF13.2
aF13.2
aF13.2
aF13.2
aF13.2
aF13.2
aF13.3
aF13.3
aF13.3
aF13.4
aF13.4
aF13.4
aF13.4
aF13.4
aF13.4
aF13.4
aF13.5
aF13.5
aF13.5
aF13.5
aF13.5
aF13.5
aF13.5
aF13.5
aF13.6
aF13.6
aF13.6
aF13.6
aF13.6
aF13.6
aF13.6
aF13.6
aF13.6
aF13.7
aF13.7
aF13.7
aF13.7
aF13.7
aF13.7
aF13.7
aF13.8
aF13.8
aF13.8
aF13.8
aF13.8
aF13.8
aF13.8
aF13.8
aF13.8
aF13.8
aF13.8
aF13.8
aF13.8
aF13.8
aF13.9
aF13.9
aF13.9
aF13.9
aF13.9
aF13.9
aF13.9
aF13.9
aF13.9
aF13.9
aF13.9
aF14.0
aF14.0
aF14.0
aF14.0
aF14.0
aF14.0
aF14.0
aF14.0
aF14.0
aF14.0
aF14.0
aF14.0
aF14.0
aF14.0
aF14.1
aF14.1
aF14.1
aF14.1
aF14.1
aF14.1
aF14.1
aF14.1
aF14.2
aF14.2
aF14.2
aF14.2
aF14.2
aF14.3
aF14.3
aF14.3
aF14.3
aF14.3
aF14.3
aF14.3
aF14.4
aF14.4
aF14.4
aF14.4
aF14.4
aF14.4
aF14.4
aF14.4
aF14.4
aF14.4
aF14.5
aF14.5
aF14.5
aF14.5
aF14.5
aF14.5
aF14.5
aF14.6
aF14.6
aF14.6
aF14.6
aF14.6
aF14.6
aF14.6
aF14.6
aF14.7
aF14.7
aF14.7
aF14.7
aF14.7
aF14.7
aF14.7
aF14.7
aF14.7
aF14.8
aF14.8
aF14.8
aF14.8
aF14.8
aF14.8
aF14.9
aF14.9
aF14.9
aF14.9
aF14.9
aF14.9
aF14.9
aF14.9
aF14.9
aF14.9
aF14.9
aF14.9
aF14.9
aF14.9
aF15.0
aF15.0
aF15.0
aF15.0
aF15.0
aF15.0
aF15.0
aF15.0
aF15.1
aF15.1
aF15.1
aF15.1
aF15.1
aF15.1
aF15.1
aF15.1
aF15.2
aF15.2
aF15.2
aF15.2
aF15.2
aF15.2
aF15.2
aF15.2
aF15.3
aF15.3
aF15.3
aF15.3
aF15.3
aF15.3
aF15.3
aF15.4
aF15.4
aF15.4
aF15.4
aF15.4
aF15.4
aF15.5
aF15.5
aF15.5
aF15.5
aF15.5
aF15.5
aF15.5
aF15.5
aF15.5
aF15.6
aF15.6
aF15.6
aF15.6
aF15.6
aF15.6
aF15.6
aF15.6
aF15.7
aF15.7
aF15.7
aF15.7
aF15.7
aF15.8
aF15.8
aF15.8
aF15.8
aF15.8
aF15.8
aF15.8
aF15.9
aF15.9
aF15.9
aF15.9
aF15.9
aF16.0
aF16.0
aF16.0
aF16.0
aF16.0
aF16.0
aF16.1
aF16.1
aF16.1
aF16.1
aF16.1
aF16.1
aF16.2
aF16.2
aF16.2
aF16.2
aF16.2
aF16.2
aF16.2
aF16.2
aF16.2
aF16.2
aF16.3
aF16.3
aF16.3
aF16.3
aF16.3
aF16.4
aF16.4
aF16.4
aF16.4
aF16.4
aF16.4
aF16.4
aF16.4
aF16.4
aF16.4
aF16.4
aF16.5
aF16.5
aF16.5
aF16.5
aF16.5
aF16.5
aF16.6
aF16.6
aF16.6
aF16.6
aF16.6
aF16.6
aF16.6
aF16.6
aF16.6
aF16.6
aF16.6
aF16.7
aF16.7
aF16.7
aF16.7
aF16.7
aF16.7
aF16.7
aF16.7
aF16.7
aF16.7
aF16.7
aF16.8
aF16.8
aF16.8
aF16.8
aF16.8
aF16.8
aF16.8
aF16.9
aF16.9
aF16.9
aF16.9
aF16.9
aF16.9
aF16.9
aF16.9
aF16.9
aF16.9
aF16.9
aF16.9
aF17.0
aF17.0
aF17.0
aF17.0
aF17.1
aF17.1
aF17.1
aF17.1
aF17.1
aF17.1
aF17.1
aF17.1
aF17.2
aF17.2
aF17.2
aF17.2
aF17.2
aF17.2
aF17.2
aF17.2
aF17.3
aF17.3
aF17.3
aF17.3
aF17.3
aF17.3
aF17.3
aF17.3
aF17.3
aF17.3
aF17.4
aF17.4
aF17.4
aF17.4
aF17.4
aF17.4
aF17.4
aF17.4
aF17.4
aF17.4
aF17.4
aF17.4
aF17.5
aF17.5
aF17.5
aF17.5
aF17.5
aF17.5
aF17.5
aF17.5
aF17.5
aF17.6
aF17.6
aF17.6
aF17.6
aF17.7
aF17.7
aF17.7
aF17.7
aF17.7
aF17.7
aF17.7
aF17.7
aF17.7
aF17.7
aF17.7
aF17.7
aF17.8
aF17.8
aF17.8
aF17.8
aF17.8
aF17.8
aF17.8
aF17.9
aF17.9
aF17.9
aF17.9
aF17.9
aF17.9
aF17.9
aF17.9
aF17.9
aF17.9
aF18.0
aF18.0
aF18.0
aF18.0
aF18.0
aF18.0
aF18.0
aF18.0
aF18.0
aF18.0
aF18.1
aF18.1
aF18.1
aF18.1
aF18.1
aF18.1
aF18.1
aF18.1
aF18.1
aF18.2
aF18.2
aF18.2
aF18.2
aF18.2
aF18.2
aF18.2
aF18.2
aF18.2
aF18.2
aF18.3
aF18.3
aF18.3
aF18.3
aF18.3
aF18.3
aF18.3
aF18.3
aF18.4
aF18.4
aF18.4
aF18.4
aF18.4
aF18.4
aF18.4
aF18.4
aF18.4
aF18.4
aF18.5
aF18.5
aF18.5
aF18.5
aF18.5
aF18.5
aF18.5
aF18.5
aF18.6
aF18.6
aF18.6
aF18.6
aF18.6
aF18.6
aF18.6
aF18.7
aF18.7
aF18.7
aF18.7
aF18.7
aF18.7
aF18.7
aF18.7
aF18.7
aF18.8
aF18.8
aF18.8
aF18.8
aF18.8
aF18.8
aF18.9
aF18.9
aF18.9
aF18.9
aF18.9
aF18.9
aF18.9
aF18.9
aF18.9
aF18.9
aF19.0
aF19.0
aF19.0
aF19.0
aF19.0
aF19.0
aF19.0
aF19.1
aF19.1
aF19.1
aF19.1
aF19.1
aF19.1
aF19.1
aF19.1
aF19.1
aF19.1
aF19.2
aF19.2
aF19.2
aF19.2
aF19.2
aF19.2
aF19.2
aF19.2
aF19.2
aF19.2
aF19.2
aF19.3
aF19.3
aF19.3
aF19.3
aF19.3
aF19.3
aF19.3
aF19.3
aF19.3
aF19.3
aF19.4
aF19.4
aF19.4
aF19.4
aF19.4
aF19.4
aF19.5
aF19.5
aF19.5
aF19.5
aF19.5
aF19.5
aF19.5
aF19.5
aF19.5
aF19.5
aF19.6
aF19.6
aF19.6
aF19.6
aF19.6
aF19.6
aF19.6
aF19.6
aF19.6
aF19.7
aF19.7
aF19.7
aF19.7
aF19.7
aF19.7
aF19.7
aF19.7
aF19.7
aF19.7
aF19.7
aF19.7
aF19.8
aF19.8
aF19.8
aF19.8
aF19.9
aF19.9
aF19.9
aF19.9
aF19.9
aF19.9
aF19.9
aF19.9
aF19.9
aF19.9
aF19.9
aF19.9
aF20.0
aF20.0
aF20.0
aF20.0
aF20.0
aF20.0
aF20.0
aF20.1
aF20.1
aF20.1
aF20.1
aF20.1
aF20.1
aF20.1
aF20.1
aF20.1
aF20.1
aF20.1
aF20.2
aF20.2
aF20.2
aF20.2
aF20.2
aF20.2
aF20.2
aF20.3
aF20.3
aF20.3
aF20.3
aF20.3
aF20.3
aF20.3
aF20.3
aF20.4
aF20.4
aF20.4
aF20.4
aF20.4
aF20.4
aF20.4
aF20.4
aF20.4
aF20.4
aF20.4
aF20.5
aF20.5
aF20.5
aF20.5
aF20.5
aF20.5
aF20.5
aF20.5
aF20.5
aF20.5
aF20.5
aF20.5
aF20.6
aF20.6
aF20.6
aF20.6
aF20.6
aF20.7
aF20.7
aF20.7
aF20.7
aF20.7
aF20.7
aF20.7
aF20.7
aF20.7
aF20.7
aF20.8
aF20.8
aF20.8
aF20.8
aF20.8
aF20.8
aF20.8
aF20.9
aF20.9
aF20.9
aF20.9
aF20.9
aF21.0
aF21.0
aF21.0
aF21.0
aF21.0
aF21.0
aF21.0
aF21.0
aF21.1
aF21.1
aF21.1
aF21.1
aF21.1
aF21.1
aF21.1
aF21.1
aF21.1
aF21.1
aF21.1
aF21.1
aF21.1
aF21.1
aF21.2
aF21.2
aF21.2
aF21.2
aF21.2
aF21.2
aF21.2
aF21.2
aF21.3
aF21.3
aF21.3
aF21.3
aF21.3
aF21.3
aF21.3
aF21.3
aF21.3
aF21.3
aF21.3
aF21.4
aF21.4
aF21.4
aF21.4
aF21.4
aF21.4
aF21.4
aF21.5
aF21.5
aF21.5
aF21.5
aF21.5
aF21.5
aF21.5
aF21.5
aF21.5
aF21.5
aF21.6
aF21.6
aF21.6
aF21.6
aF21.6
aF21.6
aF21.6
aF21.6
aF21.7
aF21.7
aF21.7
aF21.7
aF21.7
aF21.7
aF21.7
aF21.7
aF21.7
aF21.7
aF21.7
aF21.7
aF21.7
aF21.8
aF21.8
aF21.8
aF21.8
aF21.8
aF21.8
aF21.8
aF21.8
aF21.8
aF21.8
aF21.8
aF21.9
aF21.9
aF21.9
aF21.9
aF21.9
aF21.9
aF21.9
aF21.9
aF21.9
aF22.0
aF22.0
aF22.0
aF22.0
aF22.0
aF22.0
aF22.0
aF22.0
aF22.0
aF22.0
aF22.0
aF22.0
aF22.0
aF22.1
aF22.1
aF22.1
aF22.1
aF22.1
aF22.1
aF22.1
aF22.2
aF22.2
aF22.2
aF22.2
aF22.2
aF22.2
aF22.2
aF22.2
aF22.2
aF22.2
aF22.2
aF22.2
aF22.2
aF22.2
aF22.3
aF22.3
aF22.3
aF22.3
aF22.3
aF22.4
aF22.4
aF22.4
aF22.4
aF22.4
aF22.4
aF22.4
aF22.5
aF22.5
aF22.5
aF22.5
aF22.5
aF22.5
aF22.5
aF22.5
aF22.5
aF22.5
aF22.5
aF22.5
aF22.6
aF22.6
aF22.6
aF22.6
aF22.6
aF22.6
aF22.7
aF22.7
aF22.7
aF22.7
aF22.7
aF22.7
aF22.7
aF22.7
aF22.7
aF22.7
aF22.8
aF22.8
aF22.8
aF22.8
aF22.8
aF22.8
aF22.8
aF22.8
aF22.8
aF22.8
aF22.9
aF22.9
aF22.9
aF22.9
aF22.9
aF22.9
aF22.9
aF22.9
aF22.9
aF23.0
aF23.0
aF23.0
aF23.0
aF23.0
aF23.0
aF23.0
aF23.0
aF23.0
aF23.0
aF23.0
aF23.1
aF23.1
aF23.1
aF23.1
aF23.1
aF23.1
aF23.1
aF23.1
aF23.1
aF23.2
aF23.2
aF23.2
aF23.2
aF23.2
aF23.2
aF23.2
aF23.2
aF23.3
aF23.3
aF23.3
aF23.3
aF23.3
aF23.3
aF23.3
aF23.3
aF23.3
aF23.3
aF23.3
aF23.3
aF23.3
aF23.3
aF23.4
aF23.4
aF23.4
aF23.4
aF23.4
aF23.4
aF23.4
aF23.4
aF23.4
aF23.4
aF23.4
aF23.5
aF23.5
aF23.5
aF23.5
aF23.5
aF23.5
aF23.5
aF23.5
aF23.5
aF23.6
aF23.6
aF23.6
aF23.6
aF23.6
aF23.6
aF23.6
aF23.7
aF23.7
aF23.7
aF23.7
aF23.7
aF23.7
aF23.8
aF23.8
aF23.8
aF23.8
aF23.8
aF23.8
aF23.8
aF23.8
aF23.8
aF23.8
aF23.8
aF23.8
aF23.9
aF23.9
aF23.9
aF23.9
aF23.9
aF23.9
aF23.9
aF23.9
aF23.9
aF24.0
aF24.0
aF24.0
aF24.0
aF24.0
aF24.0
aF24.0
aF24.0
aF24.1
aF24.1
aF24.1
aF24.1
aF24.1
aF24.1
aF24.1
aF24.1
aF24.1
aF24.1
aF24.1
aF24.1
aF24.1
aF24.2
aF24.2
aF24.2
aF24.2
aF24.2
aF24.2
aF24.2
aF24.2
aF24.2
aF24.2
aF24.2
aF24.2
aF24.3
aF24.3
aF24.3
aF24.3
aF24.3
aF24.3
aF24.3
aF24.3
aF24.3
aF24.3
aF24.3
aF24.3
aF24.3
aF24.3
aF24.4
aF24.4
aF24.4
aF24.4
aF24.4
aF24.4
aF24.5
aF24.5
aF24.5
aF24.5
aF24.5
aF24.5
aF24.5
aF24.5
aF24.5
aF24.6
aF24.6
aF24.6
aF24.6
aF24.6
aF24.6
aF24.6
aF24.6
aF24.6
aF24.6
aF24.6
aF24.6
aF24.7
aF24.7
aF24.7
aF24.7
aF24.7
aF24.7
aF24.7
aF24.7
aF24.7
aF24.7
aF24.7
aF24.7
aF24.8
aF24.8
aF24.8
aF24.8
aF24.8
aF24.8
aF24.8
aF24.8
aF24.9
aF24.9
aF24.9
aF24.9
aF24.9
aF24.9
aF24.9
aF24.9
aF24.9
aF24.9
aF24.9
aF24.9
aF24.9
aF24.9
aF24.9
aF25.0
aF25.0
aF25.0
aF25.0
aF25.0
aF25.1
aF25.1
aF25.1
aF25.1
aF25.1
aF25.1
aF25.1
aF25.1
aF25.1
aF25.1
aF25.1
aF25.1
aF25.2
aF25.2
aF25.2
aF25.2
aF25.2
aF25.2
aF25.3
aF25.3
aF25.3
aF25.3
aF25.3
aF25.3
aF25.3
aF25.3
aF25.3
aF25.3
aF25.3
aF25.3
aF25.3
aF25.3
aF25.4
aF25.4
aF25.4
aF25.4
aF25.4
aF25.4
aF25.4
aF25.4
aF25.4
aF25.5
aF25.5
aF25.5
aF25.5
aF25.5
aF25.5
aF25.5
aF25.5
aF25.5
aF25.5
aF25.5
aF25.5
aF25.5
aF25.6
aF25.6
aF25.6
aF25.6
aF25.6
aF25.6
aF25.7
aF25.7
aF25.7
aF25.7
aF25.7
aF25.7
aF25.7
aF25.7
aF25.7
aF25.7
aF25.7
aF25.7
aF25.8
aF25.8
aF25.8
aF25.8
aF25.8
aF25.8
aF25.8
aF25.8
aF25.8
aF25.8
aF25.8
aF25.8
aF25.8
aF25.9
aF25.9
aF25.9
aF25.9
aF25.9
aF25.9
aF25.9
aF25.9
aF25.9
aF25.9
aF26.0
aF26.0
aF26.0
aF26.0
aF26.0
aF26.0
aF26.0
aF26.1
aF26.1
aF26.1
aF26.1
aF26.2
aF26.2
aF26.2
aF26.2
aF26.2
aF26.2
aF26.2
aF26.2
aF26.3
aF26.3
aF26.3
aF26.3
aF26.3
aF26.4
aF26.4
aF26.4
aF26.4
aF26.4
aF26.4
aF26.4
aF26.4
aF26.4
aF26.4
aF26.4
aF26.5
aF26.5
aF26.5
aF26.5
aF26.5
aF26.5
aF26.5
aF26.5
aF26.5
aF26.5
aF26.5
aF26.5
aF26.6
aF26.6
aF26.6
aF26.6
aF26.6
aF26.6
aF26.6
aF26.6
aF26.6
aF26.6
aF26.7
aF26.7
aF26.7
aF26.7
aF26.7
aF26.7
aF26.7
aF26.7
aF26.7
aF26.7
aF26.7
aF26.8
aF26.8
aF26.9
aF26.9
aF26.9
aF26.9
aF26.9
aF26.9
aF26.9
aF27.0
aF27.0
aF27.0
aF27.0
aF27.0
aF27.0
aF27.1
aF27.1
aF27.1
aF27.1
aF27.2
aF27.2
aF27.2
aF27.2
aF27.2
aF27.2
aF27.2
aF27.2
aF27.3
aF27.3
aF27.3
aF27.3
aF27.3
aF27.3
aF27.3
aF27.3
aF27.4
aF27.4
aF27.4
aF27.4
aF27.4
aF27.5
aF27.5
aF27.5
aF27.5
aF27.5
aF27.5
aF27.5
aF27.5
aF27.5
aF27.5
aF27.6
aF27.6
aF27.6
aF27.6
aF27.6
aF27.6
aF27.6
aF27.6
aF27.7
aF27.7
aF27.7
aF27.7
aF27.7
aF27.7
aF27.7
aF27.7
aF27.7
aF27.7
aF27.7
aF27.7
aF27.7
aF27.7
aF27.8
aF27.8
aF27.8
aF27.8
aF27.8
aF27.8
aF27.8
aF27.8
aF27.9
aF27.9
aF27.9
aF27.9
aF27.9
aF27.9
aF27.9
aF27.9
aF27.9
aF27.9
aF28.0
aF28.0
aF28.0
aF28.0
aF28.0
aF28.0
aF28.0
aF28.0
aF28.0
aF28.1
aF28.1
aF28.1
aF28.1
aF28.1
aF28.1
aF28.1
aF28.1
aF28.1
aF28.1
aF28.1
aF28.2
aF28.2
aF28.2
aF28.2
aF28.2
aF28.2
aF28.2
aF28.2
aF28.3
aF28.3
aF28.3
aF28.3
aF28.3
aF28.3
aF28.3
aF28.3
aF28.4
aF28.4
aF28.4
aF28.4
aF28.4
aF28.4
aF28.5
aF28.5
aF28.5
aF28.5
aF28.5
aF28.5
aF28.5
aF28.6
aF28.6
aF28.6
aF28.6
aF28.6
aF28.6
aF28.6
aF28.6
aF28.6
aF28.7
aF28.7
aF28.7
aF28.7
aF28.7
aF28.7
aF28.7
aF28.8
aF28.8
aF28.9
aF28.9
aF28.9
aF28.9
aF28.9
aF28.9
aF28.9
aF29.0
aF29.0
aF29.0
aF29.0
aF29.0
aF29.0
aF29.1
aF29.1
aF29.2
aF29.2
aF29.2
aF29.2
aF29.2
aF29.2
aF29.3
aF29.3
aF29.3
aF29.4
aF29.4
aF29.4
aF29.4
aF29.4
aF29.4
aF29.4
aF29.4
aF29.5
aF29.5
aF29.5
aF29.5
aF29.5
aF29.5
aF29.6
aF29.6
aF29.6
aF29.6
aF29.6
aF29.6
aF29.6
aF29.6
aF29.7
aF29.7
aF29.7
aF29.7
aF29.7
aF29.8
aF29.8
aF29.8
aF29.8
aF29.8
aF29.9
aF29.9
aF29.9
aF29.9
aF29.9
aF29.9
aF29.9
aF29.9
aF29.9
aF30.0
aF30.0
aF30.0
aF30.0
aF30.0
aF30.0
aF30.0
aF30.0
aF30.0
aF30.1
aF30.1
aF30.1
aF30.1
aF30.1
aF30.1
aF30.1
aF30.2
aF30.2
aF30.2
aF30.2
aF30.2
aF30.2
aF30.2
aF30.3
aF30.3
aF30.3
aF30.3
aF30.3
aF30.3
aF30.3
aF30.3
aF30.4
aF30.4
aF30.4
aF30.4
aF30.4
aF30.4
aF30.5
aF30.5
aF30.5
aF30.5
aF30.5
aF30.5
aF30.5
aF30.5
aF30.5
aF30.5
aF30.5
aF30.5
aF30.5
aF30.5
aF30.6
aF30.6
aF30.6
aF30.6
aF30.6
aF30.6
aF30.6
aF30.7
aF30.7
aF30.7
aF30.7
aF30.7
aF30.8
aF30.8
aF30.8
aF30.8
aF30.8
aF30.8
aF30.8
aF30.8
aF30.8
aF30.9
aF30.9
aF30.9
aF30.9
aF30.9
aF30.9
aF31.0
aF31.0
aF31.0
aF31.0
aF31.0
aF31.0
aF31.1
aF31.1
aF31.1
aF31.1
aF31.1
aF31.1
aF31.1
aF31.1
aF31.1
aF31.1
aF31.1
aF31.1
aF31.2
aF31.2
aF31.2
aF31.2
aF31.2
aF31.2
aF31.3
aF31.3
aF31.3
aF31.3
aF31.3
aF31.3
aF31.3
aF31.3
aF31.3
aF31.3
aF31.3
aF31.4
aF31.4
aF31.4
aF31.5
aF31.5
aF31.5
aF31.5
aF31.5
aF31.6
aF31.6
aF31.6
aF31.7
aF31.7
aF31.7
aF31.7
aF31.7
aF31.8
aF31.8
aF31.8
aF31.8
aF31.8
aF31.8
aF31.8
aF31.8
aF31.9
aF31.9
aF31.9
aF31.9
aF31.9
aF31.9
aF31.9
aF31.9
aF31.9
aF31.9
aF32.0
aF32.0
aF32.0
aF32.0
aF32.0
aF32.0
aF32.0
aF32.0
aF32.0
aF32.1
aF32.1
aF32.1
aF32.1
aF32.1
aF32.1
aF32.1
aF32.1
aF32.1
aF32.1
aF32.1
aF32.2
aF32.2
aF32.2
aF32.2
aF32.2
aF32.2
aF32.3
aF32.3
aF32.3
aF32.3
aF32.3
aF32.3
aF32.3
aF32.3
aF32.3
aF32.3
aF32.3
aF32.3
aF32.3
aF32.3
aF32.4
aF32.4
aF32.4
aF32.4
aF32.4
aF32.5
aF32.5
aF32.5
aF32.5
aF32.5
aF32.6
aF32.6
aF32.6
aF32.6
aF32.6
aF32.6
aF32.6
aF32.6
aF32.6
aF32.6
aF32.6
aF32.7
aF32.7
aF32.7
aF32.7
aF32.7
aF32.7
aF32.7
aF32.7
aF32.7
aF32.8
aF32.8
aF32.8
aF32.8
aF32.8
aF32.8
aF32.8
aF32.8
aF32.8
aF32.8
aF32.8
aF32.9
aF32.9
aF32.9
aF32.9
aF32.9
aF32.9
aF32.9
aF33.0
aF33.0
aF33.0
aF33.0
aF33.0
aF33.0
aF33.1
aF33.1
aF33.1
aF33.1
aF33.1
aF33.1
aF33.1
aF33.2
aF33.2
aF33.2
aF33.2
aF33.2
aF33.2
aF33.2
aF33.2
aF33.2
aF33.2
aF33.3
aF33.3
aF33.3
aF33.3
aF33.4
aF33.4
aF33.4
aF33.4
aF33.4
aF33.4
aF33.4
aF33.4
aF33.4
aF33.5
aF33.5
aF33.5
aF33.5
aF33.5
aF33.5
aF33.5
aF33.6
aF33.6
aF33.6
aF33.6
aF33.6
aF33.6
aF33.7
aF33.7
aF33.7
aF33.7
aF33.7
aF33.7
aF33.7
aF33.7
aF33.8
aF33.8
aF33.8
aF33.8
aF33.8
aF33.8
aF33.8
aF33.9
aF33.9
aF33.9
aF33.9
aF33.9
aF34.0
aF34.0
aF34.0
aF34.0
aF34.0
aF34.0
aF34.1
aF34.1
aF34.1
aF34.1
aF34.1
aF34.1
aF34.1
aF34.1
aF34.1
aF34.1
aF34.1
aF34.2
aF34.2
aF34.2
aF34.3
aF34.3
aF34.3
aF34.3
aF34.3
aF34.3
aF34.3
aF34.3
aF34.3
aF34.4
aF34.4
aF34.4
aF34.4
aF34.4
aF34.4
aF34.4
aF34.4
aF34.5
aF34.5
aF34.5
aF34.5
aF34.5
aF34.5
aF34.6
aF34.6
aF34.6
aF34.6
aF34.7
aF34.7
aF34.7
aF34.7
aF34.7
aF34.7
aF34.7
aF34.8
aF34.8
aF34.8
aF34.8
aF34.8
aF34.8
aF34.8
aF34.9
aF34.9
aF35.0
aF35.0
aF35.0
aF35.1
aF35.1
aF35.1
aF35.1
aF35.2
aF35.2
aF35.2
aF35.3
aF35.3
aF35.3
aF35.3
aF35.3
aF35.3
aF35.3
aF35.3
aF35.3
aF35.4
aF35.4
aF35.4
aF35.4
aF35.4
aF35.4
aF35.4
aF35.4
aF35.4
aF35.5
aF35.5
aF35.5
aF35.5
aF35.6
aF35.6
aF35.6
aF35.6
aF35.6
aF35.6
aF35.6
aF35.6
aF35.6
aF35.6
aF35.7
aF35.7
aF35.7
aF35.7
aF35.7
aF35.8
aF35.8
aF35.8
aF35.8
aF35.8
aF35.8
aF35.8
aF35.8
aF35.8
aF35.9
aF35.9
aF35.9
aF35.9
aF35.9
aF35.9
aF35.9
aF35.9
aF35.9
aF36.0
aF36.0
aF36.0
aF36.1
aF36.1
aF36.1
aF36.1
aF36.1
aF36.1
aF36.1
aF36.1
aF36.1
aF36.1
aF36.1
aF36.2
aF36.2
aF36.2
aF36.2
aF36.2
aF36.2
aF36.2
aF36.2
aF36.2
aF36.3
aF36.3
aF36.3
aF36.3
aF36.3
aF36.3
aF36.3
aF36.3
aF36.4
aF36.4
aF36.4
aF36.4
aF36.5
aF36.5
aF36.5
aF36.5
aF36.5
aF36.5
aF36.6
aF36.6
aF36.6
aF36.6
aF36.6
aF36.6
aF36.7
aF36.7
aF36.7
aF36.7
aF36.7
aF36.7
aF36.7
aF36.7
aF36.7
aF36.7
aF36.7
aF36.7
aF36.8
aF36.8
aF36.8
aF36.8
aF36.8
aF36.9
aF36.9
aF36.9
aF36.9
aF36.9
aF36.9
aF36.9
aF37.0
aF37.0
aF37.0
aF37.0
aF37.0
aF37.0
aF37.0
aF37.0
aF37.0
aF37.0
aF37.0
aF37.0
aF37.0
aF37.0
aF37.1
aF37.1
aF37.1
aF37.1
aF37.1
aF37.1
aF37.1
aF37.2
aF37.2
aF37.2
aF37.2
aF37.2
aF37.2
aF37.2
aF37.3
aF37.3
aF37.3
aF37.3
aF37.4
aF37.4
aF37.4
aF37.5
aF37.5
aF37.5
aF37.6
aF37.6
aF37.6
aF37.6
aF37.6
aF37.6
aF37.6
aF37.6
aF37.7
aF37.7
aF37.7
aF37.8
aF37.8
aF37.8
aF37.8
aF37.8
aF37.9
aF37.9
aF37.9
aF37.9
aF37.9
aF38.0
aF38.0
aF38.0
aF38.0
aF38.0
aF38.0
aF38.1
aF38.1
aF38.1
aF38.1
aF38.1
aF38.1
aF38.1
aF38.1
aF38.1
aF38.2
aF38.2
aF38.2
aF38.2
aF38.2
aF38.2
aF38.3
aF38.3
aF38.3
aF38.3
aF38.3
aF38.3
aF38.4
aF38.4
aF38.4
aF38.4
aF38.4
aF38.4
aF38.5
aF38.5
aF38.5
aF38.5
aF38.5
aF38.5
aF38.5
aF38.5
aF38.5
aF38.6
aF38.6
aF38.7
aF38.7
aF38.7
aF38.7
aF38.7
aF38.7
aF38.7
aF38.7
aF38.7
aF38.7
aF38.8
aF38.8
aF38.9
aF38.9
aF38.9
aF38.9
aF39.0
aF39.0
aF39.0
aF39.1
aF39.1
aF39.1
aF39.1
aF39.1
aF39.1
aF39.2
aF39.2
aF39.2
aF39.2
aF39.2
aF39.2
aF39.2
aF39.3
aF39.3
aF39.3
aF39.4
aF39.4
aF39.5
aF39.5
aF39.5
aF39.5
aF39.5
aF39.5
aF39.6
aF39.6
aF39.7
aF39.7
aF39.7
aF39.7
aF39.7
aF39.7
aF39.7
aF39.8
aF39.8
aF39.8
aF39.8
aF39.8
aF39.8
aF39.9
aF40.0
aF40.0
aF40.0
aF40.0
aF40.0
aF40.0
aF40.1
aF40.1
aF40.1
aF40.1
aF40.1
aF40.1
aF40.2
aF40.2
aF40.3
aF40.3
aF40.3
aF40.3
aF40.3
aF40.3
aF40.3
aF40.4
aF40.4
aF40.4
aF40.4
aF40.4
aF40.5
aF40.5
aF40.5
aF40.5
aF40.5
aF40.5
aF40.6
aF40.6
aF40.6
aF40.6
aF40.6
aF40.6
aF40.6
aF40.7
aF40.7
aF40.7
aF40.7
aF40.7
aF40.7
aF40.7
aF40.7
aF40.7
aF40.8
aF40.8
aF40.8
aF40.8
aF40.8
aF40.8
aF40.8
aF40.8
aF40.9
aF40.9
aF40.9
aF40.9
aF40.9
aF41.0
aF41.0
aF41.0
aF41.0
aF41.0
aF41.0
aF41.0
aF41.0
aF41.0
aF41.0
aF41.1
aF41.1
aF41.1
aF41.1
aF41.1
aF41.1
aF41.1
aF41.2
aF41.2
aF41.3
aF41.3
aF41.3
aF41.3
aF41.3
aF41.3
aF41.3
aF41.4
aF41.4
aF41.4
aF41.4
aF41.5
aF41.5
aF41.5
aF41.5
aF41.5
aF41.5
aF41.5
aF41.6
aF41.6
aF41.6
aF41.6
aF41.6
aF41.6
aF41.6
aF41.6
aF41.7
aF41.7
aF41.7
aF41.7
aF41.7
aF41.7
aF41.7
aF41.7
aF41.7
aF41.7
aF41.8
aF41.9
aF41.9
aF41.9
aF42.0
aF42.0
aF42.1
aF42.1
aF42.1
aF42.1
aF42.1
aF42.1
aF42.2
aF42.2
aF42.2
aF42.2
aF42.3
aF42.3
aF42.3
aF42.3
aF42.3
aF42.3
aF42.3
aF42.4
aF42.4
aF42.4
aF42.5
aF42.5
aF42.5
aF42.5
aF42.5
aF42.5
aF42.6
aF42.6
aF42.6
aF42.6
aF42.7
aF42.7
aF42.7
aF42.7
aF42.7
aF42.8
aF42.8
aF42.8
aF42.8
aF42.8
aF42.8
aF42.9
aF42.9
aF42.9
aF42.9
aF42.9
aF43.0
aF43.0
aF43.0
aF43.0
aF43.0
aF43.0
aF43.1
aF43.2
aF43.2
aF43.2
aF43.2
aF43.2
aF43.2
aF43.3
aF43.3
aF43.3
aF43.3
aF43.4
aF43.4
aF43.4
aF43.4
aF43.4
aF43.4
aF43.4
aF43.4
aF43.4
aF43.5
aF43.5
aF43.5
aF43.5
aF43.6
aF43.6
aF43.6
aF43.6
aF43.6
aF43.6
aF43.7
aF43.7
aF43.7
aF43.7
aF43.7
aF43.7
aF43.8
aF43.8
aF43.8
aF43.8
aF43.8
aF43.8
aF43.9
aF44.0
aF44.0
aF44.0
aF44.0
aF44.0
aF44.0
aF44.0
aF44.0
aF44.1
aF44.1
aF44.1
aF44.1
aF44.1
aF44.1
aF44.2
aF44.2
aF44.2
aF44.2
aF44.2
aF44.2
aF44.3
aF44.3
aF44.3
aF44.4
aF44.4
aF44.4
aF44.4
aF44.4
aF44.4
aF44.4
aF44.5
aF44.5
aF44.5
aF44.6
aF44.6
aF44.6
aF44.6
aF44.6
aF44.6
aF44.7
aF44.7
aF44.7
aF44.8
aF44.8
aF44.9
aF44.9
aF44.9
aF45.0
aF45.0
aF45.0
aF45.0
aF45.1
aF45.1
aF45.1
aF45.1
aF45.1
aF45.1
aF45.1
aF45.2
aF45.3
aF45.3
aF45.4
aF45.4
aF45.4
aF45.4
aF45.4
aF45.4
aF45.4
aF45.4
aF45.5
aF45.5
aF45.5
aF45.6
aF45.6
aF45.6
aF45.7
aF45.7
aF45.7
aF45.7
aF45.8
aF45.8
aF45.8
aF45.8
aF45.9
aF46.0
aF46.0
aF46.0
aF46.0
aF46.0
aF46.0
aF46.1
aF46.1
aF46.1
aF46.1
aF46.1
aF46.1
aF46.1
aF46.2
aF46.2
aF46.2
aF46.2
aF46.2
aF46.3
aF46.3
aF46.3
aF46.3
aF46.3
aF46.4
aF46.4
aF46.4
aF46.4
aF46.4
aF46.4
aF46.4
aF46.4
aF46.4
aF46.5
aF46.5
aF46.5
aF46.5
aF46.6
aF46.7
aF46.7
aF46.7
aF46.7
aF46.8
aF46.8
aF46.8
aF46.8
aF46.8
aF46.8
aF46.8
aF46.8
aF46.9
aF46.9
aF46.9
aF46.9
aF46.9
aF46.9
aF47.0
aF47.0
aF47.1
aF47.1
aF47.2
aF47.2
aF47.2
aF47.2
aF47.2
aF47.3
aF47.3
aF47.4
aF47.4
aF47.5
aF47.5
aF47.5
aF47.5
aF47.6
aF47.7
aF47.7
aF47.7
aF47.8
aF47.8
aF47.8
aF47.9
aF47.9
aF47.9
aF48.0
aF48.0
aF48.0
aF48.0
aF48.0
aF48.1
aF48.1
aF48.1
aF48.1
aF48.2
aF48.2
aF48.4
aF48.5
aF48.5
aF48.5
aF48.6
aF48.6
aF48.6
aF48.6
aF48.6
aF48.6
aF48.6
aF48.7
aF48.7
aF48.8
aF48.8
aF48.8
aF48.8
aF48.8
aF48.8
aF48.8
aF48.8
aF48.9
aF48.9
aF48.9
aF48.9
aF48.9
aF49.0
aF49.0
aF49.0
aF49.0
aF49.0
aF49.0
aF49.0
aF49.0
aF49.0
aF49.1
aF49.1
aF49.1
aF49.2
aF49.2
aF49.2
aF49.2
aF49.2
aF49.2
aF49.2
aF49.2
aF49.2
aF49.3
aF49.3
aF49.3
aF49.3
aF49.4
aF49.4
aF49.4
aF49.4
aF49.4
aF49.4
aF49.4
aF49.4
aF49.5
aF49.5
aF49.5
aF49.5
aF49.6
aF49.6
aF49.6
aF49.6
aF49.6
aF49.6
aF49.6
aF49.6
aF49.7
aF49.7
aF49.7
aF49.7
aF49.8
aF49.8
aF49.8
aF49.8
aF49.9
aF49.9
aF50.0
aF50.0
aF50.1
aF50.1
aF50.2
aF50.2
aF50.3
aF50.4
aF50.4
aF50.4
aF50.4
aF50.4
aF50.5
aF50.5
aF50.5
aF50.6
aF50.6
aF50.6
aF50.6
aF50.6
aF50.6
aF50.7
aF50.7
aF50.7
aF50.8
aF50.8
aF50.8
aF50.8
aF50.8
aF50.8
aF50.8
aF50.8
aF50.9
aF50.9
aF50.9
aF50.9
aF50.9
aF51.0
aF51.0
aF51.0
aF51.0
aF51.0
aF51.0
aF51.1
aF51.1
aF51.1
aF51.2
aF51.3
aF51.3
aF51.3
aF51.4
aF51.4
aF51.4
aF51.4
aF51.5
aF51.5
aF51.5
aF51.5
aF51.5
aF51.5
aF51.6
aF51.6
aF51.7
aF51.7
aF51.7
aF51.8
aF51.9
aF51.9
aF52.0
aF52.1
aF52.3
aF52.4
aF52.4
aF52.4
aF52.5
aF52.5
aF52.6
aF52.6
aF52.6
aF52.6
aF52.7
aF52.7
aF52.7
aF52.7
aF52.7
aF52.8
aF52.8
aF52.8
aF52.8
aF52.8
aF52.8
aF52.9
aF52.9
aF52.9
aF53.0
aF53.1
aF53.1
aF53.1
aF53.1
aF53.2
aF53.2
aF53.2
aF53.3
aF53.3
aF53.3
aF53.3
aF53.3
aF53.3
aF53.3
aF53.3
aF53.4
aF53.4
aF53.4
aF53.5
aF53.5
aF53.5
aF53.6
aF53.6
aF53.7
aF53.7
aF53.7
aF53.8
aF53.8
aF53.9
aF53.9
aF53.9
aF53.9
aF54.0
aF54.0
aF54.0
aF54.0
aF54.0
aF54.1
aF54.1
aF54.2
aF54.2
aF54.2
aF54.2
aF54.3
aF54.3
aF54.3
aF54.4
aF54.5
aF54.6
aF54.6
aF54.6
aF54.6
aF54.6
aF54.7
aF54.7
aF54.7
aF54.7
aF54.7
aF54.8
aF54.8
aF54.8
aF54.8
aF54.9
aF54.9
aF54.9
aF55.0
aF55.0
aF55.1
aF55.1
aF55.1
aF55.2
aF55.2
aF55.2
aF55.2
aF55.2
aF55.2
aF55.3
aF55.4
aF55.4
aF55.4
aF55.4
aF55.5
aF55.5
aF55.5
aF55.7
aF55.7
aF55.7
aF55.7
aF55.9
aF55.9
aF55.9
aF55.9
aF56.0
aF56.0
aF56.0
aF56.0
aF56.0
aF56.1
aF56.2
aF56.2
aF56.2
aF56.3
aF56.3
aF56.3
aF56.4
aF56.4
aF56.4
aF56.4
aF56.5
aF56.5
aF56.6
aF56.6
aF56.6
aF56.6
aF56.7
aF56.7
aF56.7
aF56.7
aF56.8
aF56.8
aF56.8
aF56.8
aF56.9
aF56.9
aF57.0
aF57.0
aF57.0
aF57.0
aF57.1
aF57.2
aF57.2
aF57.2
aF57.3
aF57.4
aF57.4
aF57.4
aF57.4
aF57.5
aF57.5
aF57.5
aF57.5
aF57.5
aF57.6
aF57.6
aF57.7
aF57.7
aF57.7
aF57.8
aF57.8
aF57.9
aF57.9
aF57.9
aF57.9
aF58.0
aF58.0
aF58.0
aF58.0
aF58.1
aF58.2
aF58.2
aF58.2
aF58.2
aF58.2
aF58.3
aF58.4
aF58.4
aF58.5
aF58.5
aF58.6
aF58.6
aF58.6
aF58.7
aF58.7
aF58.7
aF58.8
aF58.8
aF58.8
aF58.8
aF58.9
aF58.9
aF58.9
aF58.9
aF58.9
aF58.9
aF59.0
aF59.0
aF59.0
aF59.1
aF59.1
aF59.1
aF59.1
aF59.1
aF59.1
aF59.1
aF59.2
aF59.2
aF59.2
aF59.2
aF59.2
aF59.2
aF59.2
aF59.3
aF59.3
aF59.4
aF59.4
aF59.4
aF59.4
aF59.4
aF59.4
aF59.4
aF59.4
aF59.5
aF59.5
aF59.5
aF59.5
aF59.5
aF59.6
aF59.6
aF59.6
aF59.6
aF59.6
aF59.6
aF59.7
aF59.8
aF59.8
aF59.8
aF59.8
aF59.9
aF59.9
aF60.0
aF60.0
aF60.0
aF60.0
aF60.1
aF60.1
aF60.1
aF60.1
aF60.2
aF60.3
aF60.4
aF60.4
aF60.4
aF60.5
aF60.5
aF60.6
aF60.6
aF60.7
aF60.7
aF60.7
aF60.7
aF60.7
aF60.8
aF60.8
aF60.8
aF60.8
aF60.9
aF60.9
aF60.9
aF60.9
aF61.0
aF61.0
aF61.1
aF61.1
aF61.2
aF61.2
aF61.2
aF61.2
aF61.3
aF61.3
aF61.4
aF61.4
aF61.4
aF61.5
aF61.5
aF61.6
aF61.6
aF61.7
aF61.8
aF61.8
aF61.8
aF61.8
aF61.9
aF61.9
aF61.9
aF62.0
aF62.0
aF62.1
aF62.2
aF62.3
aF62.4
aF62.4
aF62.5
aF62.5
aF62.5
aF62.5
aF62.5
aF62.6
aF62.7
aF62.7
aF62.7
aF62.8
aF62.8
aF62.8
aF62.9
aF62.9
aF62.9
aF63.1
aF63.1
aF63.2
aF63.2
aF63.3
aF63.3
aF63.3
aF63.3
aF63.4
aF63.5
aF63.5
aF63.5
aF63.5
aF63.5
aF63.6
aF63.6
aF63.6
aF63.7
aF63.7
aF63.7
aF63.8
aF63.8
aF63.8
aF63.8
aF63.8
aF63.8
aF63.9
aF63.9
aF64.0
aF64.0
aF64.0
aF64.0
aF64.0
aF64.1
aF64.1
aF64.1
aF64.2
aF64.2
aF64.2
aF64.3
aF64.3
aF64.3
aF64.4
aF64.6
aF64.6
aF64.6
aF64.7
aF64.7
aF64.7
aF64.8
aF64.8
aF64.8
aF64.8
aF64.8
aF64.9
aF64.9
aF64.9
aF65.0
aF65.0
aF65.0
aF65.0
aF65.1
aF65.1
aF65.1
aF65.2
aF65.2
aF65.2
aF65.2
aF65.3
aF65.4
aF65.4
aF65.4
aF65.5
aF65.5
aF65.5
aF65.5
aF65.6
aF65.6
aF65.6
aF65.6
aF65.8
aF65.8
aF65.8
aF65.8
aF65.8
aF65.9
aF66.0
aF66.1
aF66.1
aF66.2
aF66.2
aF66.2
aF66.2
aF66.2
aF66.3
aF66.3
aF66.4
aF66.4
aF66.4
aF66.6
aF66.6
aF66.6
aF66.6
aF66.6
aF66.6
aF66.8
aF66.8
aF66.9
aF66.9
aF66.9
aF67.0
aF67.0
aF67.0
aF67.1
aF67.1
aF67.1
aF67.2
aF67.2
aF67.2
aF67.3
aF67.3
aF67.3
aF67.4
aF67.4
aF67.4
aF67.5
aF67.6
aF67.6
aF67.6
aF67.7
aF67.8
aF67.9
aF67.9
aF67.9
aF67.9
aF67.9
aF67.9
aF68.0
aF68.0
aF68.0
aF68.1
aF68.1
aF68.1
aF68.1
aF68.2
aF68.2
aF68.2
aF68.3
aF68.3
aF68.3
aF68.3
aF68.3
aF68.3
aF68.4
aF68.4
aF68.4
aF68.4
aF68.5
aF68.5
aF68.6
aF68.7
aF68.7
aF68.7
aF68.8
aF68.9
aF69.0
aF69.0
aF69.1
aF69.1
aF69.3
aF69.3
aF69.5
aF69.5
aF69.5
aF69.6
aF69.6
aF69.7
aF69.7
aF69.7
aF69.7
aF69.8
aF69.8
aF69.8
aF69.9
aF69.9
aF70.0
aF70.1
aF70.1
aF70.2
aF70.2
aF70.3
aF70.3
aF70.4
aF70.4
aF70.4
aF70.5
aF70.5
aF70.5
aF70.5
aF70.6
aF70.6
aF70.6
aF70.6
aF70.6
aF70.8
aF70.9
aF70.9
aF70.9
aF71.0
aF71.0
aF71.1
aF71.1
aF71.1
aF71.1
aF71.2
aF71.2
aF71.2
aF71.2
aF71.3
aF71.3
aF71.3
aF71.4
aF71.4
aF71.6
aF71.6
aF71.6
aF71.7
aF71.7
aF71.7
aF71.8
aF71.8
aF71.8
aF71.8
aF71.8
aF72.0
aF72.0
aF72.0
aF72.1
aF72.1
aF72.1
aF72.1
aF72.1
aF72.1
aF72.2
aF72.3
aF72.3
aF72.4
aF72.4
aF72.4
aF72.4
aF72.5
aF72.5
aF72.6
aF72.6
aF72.7
aF72.7
aF72.8
aF72.8
aF72.8
aF72.8
aF72.8
aF72.8
aF72.9
aF72.9
aF72.9
aF73.1
aF73.1
aF73.1
aF73.2
aF73.2
aF73.3
aF73.3
aF73.3
aF73.3
aF73.3
aF73.3
aF73.3
aF73.4
aF73.4
aF73.4
aF73.5
aF73.5
aF73.5
aF73.5
aF73.5
aF73.6
aF73.7
aF73.7
aF73.7
aF73.7
aF73.8
aF73.8
aF73.8
aF73.9
aF73.9
aF73.9
aF73.9
aF74.1
aF74.1
aF74.1
aF74.2
aF74.5
aF74.5
aF74.5
aF74.6
aF74.6
aF74.7
aF74.8
aF74.8
aF74.9
aF75.1
aF75.1
aF75.2
aF75.2
aF75.2
aF75.3
aF75.3
aF75.4
aF75.4
aF75.4
aF75.5
aF75.5
aF75.6
aF75.6
aF75.6
aF75.7
aF75.8
aF75.8
aF75.8
aF75.8
aF75.9
aF76.0
aF76.0
aF76.1
aF76.1
aF76.1
aF76.1
aF76.1
aF76.2
aF76.2
aF76.3
aF76.3
aF76.3
aF76.4
aF76.4
aF76.4
aF76.4
aF76.4
aF76.5
aF76.5
aF76.5
aF76.7
aF76.8
aF76.8
aF76.9
aF76.9
aF76.9
aF77.0
aF77.1
aF77.1
aF77.1
aF77.2
aF77.2
aF77.2
aF77.2
aF77.2
aF77.3
aF77.4
aF77.4
aF77.4
aF77.5
aF77.5
aF77.6
aF77.6
aF77.7
aF77.7
aF77.8
aF77.9
aF77.9
aF77.9
aF77.9
aF78.0
aF78.1
aF78.1
aF78.3
aF78.4
aF78.4
aF78.4
aF78.5
aF78.6
aF78.6
aF78.6
aF78.7
aF78.7
aF78.8
aF78.8
aF78.8
aF78.9
aF78.9
aF79.0
aF79.0
aF79.1
aF79.1
aF79.1
aF79.2
aF79.3
aF79.3
aF79.3
aF79.4
aF79.4
aF79.4
aF79.6
aF79.6
aF79.6
aF79.6
aF79.6
aF79.7
aF79.7
aF79.7
aF79.8
aF80.0
aF80.0
aF80.2
aF80.2
aF80.2
aF80.2
aF80.2
aF80.3
aF80.4
aF80.4
aF80.5
aF80.6
aF80.7
aF80.7
aF80.7
aF80.7
aF80.7
aF80.7
aF80.7
aF80.8
aF80.8
aF81.0
aF81.0
aF81.0
aF81.0
aF81.1
aF81.1
aF81.1
aF81.1
aF81.1
aF81.1
aF81.2
aF81.2
aF81.2
aF81.3
aF81.3
aF81.4
aF81.4
aF81.5
aF81.6
aF81.6
aF81.7
aF81.9
aF81.9
aF82.0
aF82.1
aF82.2
aF82.2
aF82.3
aF82.3
aF82.4
aF82.4
aF82.4
aF82.5
aF82.6
aF82.6
aF82.6
aF82.6
aF82.7
aF82.8
aF82.8
aF82.9
aF82.9
aF82.9
aF83.0
aF83.0
aF83.0
aF83.0
aF83.0
aF83.0
aF83.0
aF83.1
aF83.1
aF83.1
aF83.1
aF83.2
aF83.2
aF83.2
aF83.3
aF83.3
aF83.3
aF83.3
aF83.4
aF83.4
aF83.4
aF83.4
aF83.5
aF83.6
aF83.6
aF83.6
aF83.6
aF83.6
aF83.7
aF83.7
aF83.8
aF84.0
aF84.1
aF84.1
aF84.1
aF84.3
aF84.3
aF84.3
aF84.3
aF84.4
aF84.5
aF84.5
aF84.6
aF84.6
aF84.6
aF84.7
aF84.8
aF84.8
aF85.0
aF85.0
aF85.0
aF85.0
aF85.0
aF85.0
aF85.1
aF85.1
aF85.2
aF85.2
aF85.3
aF85.3
aF85.4
aF85.4
aF85.5
aF85.5
aF85.5
aF85.6
aF85.7
aF85.7
aF85.7
aF85.7
aF85.7
aF85.7
aF85.8
aF85.8
aF85.8
aF85.9
aF85.9
aF85.9
aF86.0
aF86.0
aF86.0
aF86.1
aF86.1
aF86.1
aF86.1
aF86.2
aF86.2
aF86.3
aF86.3
aF86.3
aF86.4
aF86.5
aF86.5
aF86.5
aF86.6
aF86.7
aF86.7
aF86.8
aF86.8
aF86.9
aF86.9
aF86.9
aF86.9
aF87.0
aF87.0
aF87.0
aF87.0
aF87.0
aF87.0
aF87.1
aF87.1
aF87.1
aF87.1
aF87.2
aF87.2
aF87.3
aF87.4
aF87.5
aF87.6
aF87.6
aF87.6
aF87.7
aF87.7
aF87.7
aF87.7
aF87.7
aF87.8
aF87.8
aF87.8
aF87.8
aF87.8
aF87.8
aF87.8
aF87.9
aF87.9
aF87.9
aF87.9
aF88.0
aF88.0
aF88.0
aF88.1
aF88.1
aF88.2
aF88.2
aF88.3
aF88.3
aF88.3
aF88.3
aF88.4
aF88.4
aF88.5
aF88.5
aF88.5
aF88.5
aF88.5
aF88.6
aF88.6
aF88.6
aF88.7
aF88.7
aF88.7
aF88.8
aF88.9
aF88.9
aF88.9
aF89.0
aF89.2
aF89.2
aF89.2
aF89.3
aF89.3
aF89.3
aF89.4
aF89.4
aF89.4
aF89.4
aF89.4
aF89.6
aF89.6
aF89.6
aF89.6
aF89.6
aF89.8
aF89.8
aF89.8
aF89.9
aF89.9
aF90.0
aF90.0
aF90.0
aF90.0
aF90.0
aF90.1
aF90.2
aF90.2
aF90.2
aF90.3
aF90.4
aF90.4
aF90.6
aF90.7
aF90.7
aF90.7
aF90.7
aF90.7
aF90.8
aF90.8
aF90.8
aF90.9
aF90.9
aF90.9
aF91.0
aF91.0
aF91.1
aF91.1
aF91.2
aF91.2
aF91.2
aF91.3
aF91.3
aF91.3
aF91.3
aF91.4
aF91.4
aF91.4
aF91.5
aF91.5
aF91.6
aF91.6
aF91.7
aF91.7
aF91.7
aF91.8
aF91.8
aF91.8
aF91.8
aF91.8
aF91.9
aF91.9
aF92.0
aF92.1
aF92.1
aF92.3
aF92.3
aF92.3
aF92.3
aF92.4
aF92.4
aF92.5
aF92.6
aF92.6
aF92.7
aF92.9
aF92.9
aF92.9
aF92.9
aF93.0
aF93.0
aF93.0
aF93.1
aF93.1
aF93.1
aF93.2
aF93.2
aF93.2
aF93.2
aF93.2
aF93.3
aF93.3
aF93.3
aF93.4
aF93.4
aF93.5
aF93.5
aF93.5
aF93.5
aF93.6
aF93.6
aF93.6
aF93.7
aF93.7
aF93.7
aF93.8
aF94.0
aF94.0
aF94.1
aF94.1
aF94.1
aF94.2
aF94.2
aF94.3
aF94.3
aF94.3
aF94.4
aF94.6
aF94.6
aF94.6
aF94.6
aF94.7
aF94.7
aF94.8
aF94.8
aF94.8
aF94.9
aF94.9
aF94.9
aF94.9
aF95.0
aF95.0
aF95.1
aF95.1
aF95.2
aF95.2
aF95.2
aF95.2
aF95.3
aF95.4
aF95.4
aF95.4
aF95.6
aF95.6
aF95.6
aF95.6
aF95.7
aF95.8
aF95.8
aF96.0
aF96.0
aF96.0
aF96.1
aF96.1
aF96.2
aF96.2
aF96.2
aF96.3
aF96.3
aF96.4
aF96.4
aF96.5
aF96.9
aF96.9
aF96.9
aF97.0
aF97.0
aF97.1
aF97.1
aF97.2
aF97.2
aF97.3
aF97.3
aF97.5
aF97.5
aF97.5
aF97.6
aF97.7
aF97.8
aF98.0
aF98.1
aF98.1
aF98.2
aF98.3
aF98.3
aF98.3
aF98.4
aF98.4
aF98.6
aF98.6
aF98.7
aF98.7
aF98.8
aF98.8
aF98.8
aF98.9
aF98.9
aF98.9
aF98.9
aF98.9
aF99.0
aF99.0
aF99.2
aF99.2
aF99.2
aF99.2
aF99.3
aF99.4
aF99.4
aF99.5
aF99.5
aF99.5
aF99.6
aF99.7
aF99.7
aF99.8
aF99.8
aF99.8
aF99.9
aF100.0
aF100.0
aF100.0
aF100.2
aF100.2
aF100.3
aF100.4
aF100.4
aF100.4
aF100.5
aF100.5
aF100.5
aF100.5
aF100.6
aF100.6
aF100.6
aF100.7
aF100.7
aF100.8
aF100.8
aF100.9
aF100.9
aF101.0
aF101.0
aF101.1
aF101.1
aF101.2
aF101.2
aF101.2
aF101.2
aF101.3
aF101.4
aF101.6
aF101.7
aF101.7
aF101.8
aF102.0
aF102.0
aF102.0
aF102.0
aF102.1
aF102.1
aF102.1
aF102.1
aF102.1
aF102.2
aF102.3
aF102.4
aF102.5
aF102.5
aF102.6
aF102.7
aF102.8
aF102.8
aF102.8
aF102.9
aF103.0
aF103.1
aF103.1
aF103.1
aF103.2
aF103.2
aF103.2
aF103.2
aF103.3
aF103.5
aF103.6
aF103.6
aF103.7
aF103.7
aF103.7
aF103.8
aF103.9
aF103.9
aF104.0
aF104.1
aF104.2
aF104.2
aF104.2
aF104.2
aF104.3
aF104.3
aF104.3
aF104.4
aF104.4
aF104.4
aF104.4
aF104.4
aF104.5
aF104.6
aF104.8
aF104.8
aF105.0
aF105.0
aF105.0
aF105.2
aF105.3
aF105.4
aF105.5
aF105.5
aF105.6
aF105.6
aF105.6
aF105.8
aF105.8
aF105.8
aF105.8
aF105.8
aF105.8
aF105.9
aF105.9
aF106.0
aF106.0
aF106.0
aF106.1
aF106.1
aF106.2
aF106.2
aF106.2
aF106.3
aF106.3
aF106.3
aF106.5
aF106.6
aF106.6
aF106.7
aF106.7
aF106.7
aF106.7
aF106.8
aF106.8
aF106.8
aF106.8
aF106.8
aF106.9
aF106.9
aF106.9
aF106.9
aF106.9
aF107.0
aF107.1
aF107.1
aF107.2
aF107.2
aF107.3
aF107.4
aF107.4
aF107.5
aF107.5
aF107.5
aF107.6
aF107.6
aF107.7
aF107.7
aF107.7
aF107.7
aF107.8
aF107.8
aF108.0
aF108.0
aF108.2
aF108.2
aF108.2
aF108.2
aF108.4
aF108.5
aF108.5
aF108.6
aF108.6
aF108.7
aF108.7
aF108.7
aF108.9
aF108.9
aF109.3
aF109.3
aF109.3
aF109.3
aF109.3
aF109.3
aF109.5
aF109.5
aF109.5
aF109.5
aF109.6
aF109.6
aF109.7
aF109.8
aF109.9
aF110.0
aF110.0
aF110.2
aF110.3
aF110.4
aF110.5
aF110.5
aF110.6
aF110.6
aF110.7
aF110.8
aF110.8
aF110.9
aF111.0
aF111.0
aF111.1
aF111.3
aF111.3
aF111.5
aF111.7
aF111.8
aF111.9
aF111.9
aF111.9
aF112.2
aF112.3
aF112.4
aF112.5
aF112.5
aF112.6
aF112.6
aF112.6
aF112.8
aF112.9
aF113.0
aF113.0
aF113.0
aF113.0
aF113.1
aF113.2
aF113.2
aF113.3
aF113.7
aF113.8
aF113.9
aF113.9
aF114.0
aF114.0
aF114.1
aF114.1
aF114.3
aF114.3
aF114.3
aF114.4
aF114.5
aF114.8
aF114.9
aF115.0
aF115.1
aF115.1
aF115.1
aF115.3
aF115.5
aF115.6
aF115.6
aF115.6
aF115.6
aF115.7
aF115.9
aF115.9
aF116.1
aF116.1
aF116.2
aF116.2
aF116.2
aF116.2
aF116.2
aF116.5
aF116.5
aF116.6
aF116.7
aF116.7
aF116.7
aF116.8
aF116.8
aF116.8
aF116.8
aF117.0
aF117.0
aF117.1
aF117.3
aF117.3
aF117.3
aF117.4
aF117.5
aF117.6
aF117.7
aF117.7
aF117.8
aF117.9
aF117.9
aF117.9
aF118.0
aF118.0
aF118.0
aF118.1
aF118.1
aF118.2
aF118.3
aF118.3
aF118.5
aF118.9
aF119.0
aF119.2
aF119.3
aF119.3
aF119.4
aF119.4
aF119.4
aF119.5
aF119.5
aF119.6
aF119.8
aF120.4
aF120.5
aF120.7
aF121.1
aF121.2
aF121.2
aF121.3
aF121.5
aF121.7
aF121.9
aF121.9
aF121.9
aF122.0
aF122.1
aF122.2
aF122.2
aF122.3
aF122.3
aF122.4
aF122.8
aF122.9
aF123.0
aF123.0
aF123.2
aF123.2
aF123.3
aF123.6
aF123.6
aF123.8
aF124.0
aF124.0
aF124.3
aF124.3
aF124.3
aF124.5
aF124.5
aF124.6
aF124.6
aF124.7
aF124.7
aF124.8
aF124.9
aF125.0
aF125.0
aF125.1
aF125.2
aF125.2
aF125.2
aF125.3
aF125.3
aF125.3
aF125.5
aF125.5
aF125.5
aF125.6
aF125.7
aF125.7
aF125.9
aF126.0
aF126.2
aF126.3
aF126.4
aF126.4
aF126.4
aF126.5
aF126.5
aF126.7
aF127.0
aF127.0
aF127.0
aF127.2
aF127.2
aF127.2
aF127.4
aF127.4
aF127.6
aF127.9
aF128.0
aF128.1
aF128.2
aF128.4
aF128.4
aF128.5
aF128.6
aF128.6
aF128.6
aF128.8
aF128.9
aF129.0
aF129.0
aF129.1
aF129.1
aF129.3
aF129.3
aF129.3
aF129.5
aF129.5
aF129.8
aF129.9
aF130.1
aF130.2
aF130.3
aF130.3
aF130.4
aF130.4
aF130.5
aF130.6
aF130.7
aF130.8
aF130.8
aF131.0
aF131.4
aF131.4
aF131.7
aF131.8
aF131.8
aF131.9
aF131.9
aF132.0
aF132.1
aF132.1
aF132.1
aF132.2
aF132.2
aF132.6
aF132.8
aF133.0
aF133.1
aF133.2
aF133.2
aF133.5
aF133.5
aF133.6
aF133.6
aF133.6
aF133.7
aF133.9
aF133.9
aF134.1
aF134.5
aF134.7
aF134.9
aF135.0
aF135.0
aF135.2
aF135.3
aF135.5
aF135.5
aF135.6
aF135.6
aF135.7
aF135.8
aF135.9
aF135.9
aF136.2
aF136.3
aF136.4
aF136.4
aF136.5
aF136.6
aF136.7
aF136.9
aF137.0
aF137.1
aF137.3
aF137.3
aF137.4
aF137.4
aF137.5
aF137.6
aF137.9
aF138.0
aF138.1
aF138.2
aF138.4
aF138.5
aF138.6
aF138.7
aF138.7
aF139.5
aF139.5
aF139.6
aF139.7
aF139.8
aF140.0
aF140.2
aF140.4
aF140.4
aF140.5
aF140.7
aF140.8
aF140.8
aF140.8
aF141.0
aF141.2
aF141.5
aF141.7
aF141.7
aF141.8
aF142.0
aF142.0
aF142.6
aF142.7
aF142.8
aF142.9
aF143.0
aF143.1
aF143.2
aF143.4
aF143.5
aF143.6
aF143.7
aF143.7
aF143.8
aF143.9
aF144.0
aF144.2
aF144.2
aF144.3
aF144.7
aF145.2
aF145.3
aF145.3
aF145.3
aF145.4
aF145.7
aF145.9
aF146.1
aF146.2
aF146.5
aF146.7
aF147.0
aF147.0
aF147.2
aF147.3
aF147.3
aF148.1
aF148.2
aF148.2
aF148.5
aF148.6
aF149.2
aF149.3
aF149.4
aF149.5
aF149.8
aF149.8
aF149.9
aF149.9
aF150.0
aF150.1
aF150.2
aF150.2
aF150.2
aF150.5
aF150.9
aF150.9
aF150.9
aF151.3
aF151.3
aF151.3
aF151.6
aF151.8
aF151.9
aF152.0
aF152.0
aF152.3
aF152.3
aF152.5
aF152.8
aF153.8
aF154.1
aF154.1
aF154.2
aF154.2
aF154.4
aF154.5
aF154.9
aF155.0
aF155.2
aF155.3
aF155.7
aF155.8
aF155.9
aF156.0
aF156.4
aF156.7
aF156.7
aF156.8
aF156.8
aF156.9
aF157.1
aF157.2
aF157.3
aF157.5
aF157.9
aF158.2
aF158.7
aF158.8
aF159.0
aF159.1
aF159.1
aF159.3
aF159.4
aF159.5
aF159.7
aF160.2
aF160.9
aF161.0
aF161.8
aF162.0
aF162.6
aF162.7
aF162.8
aF162.9
aF163.7
aF164.3
aF164.4
aF164.4
aF164.7
aF164.8
aF164.9
aF165.0
aF165.2
aF165.2
aF165.4
aF165.7
aF166.0
aF167.1
aF167.8
aF168.0
aF168.1
aF168.2
aF168.2
aF168.3
aF168.7
aF169.1
aF169.4
aF169.7
aF169.9
aF169.9
aF169.9
aF170.0
aF170.0
aF170.3
aF170.4
aF170.9
aF171.0
aF171.1
aF171.4
aF171.5
aF171.9
aF172.6
aF172.7
aF172.9
aF173.0
aF173.0
aF173.1
aF173.6
aF173.7
aF174.0
aF174.1
aF175.5
aF175.5
aF175.9
aF176.0
aF176.2
aF176.6
aF176.7
aF177.7
aF178.8
aF179.7
aF180.0
aF180.5
aF180.6
aF181.0
aF181.5
aF182.4
aF182.8
aF183.4
aF183.4
aF183.7
aF183.7
aF183.8
aF184.0
aF184.1
aF184.4
aF184.5
aF184.7
aF184.8
aF185.1
aF185.3
aF185.8
aF185.8
aF185.8
aF187.3
aF187.6
aF188.5
aF188.7
aF189.2
aF189.3
aF189.6
aF189.6
aF189.8
aF190.7
aF190.9
aF191.2
aF191.3
aF191.5
aF191.9
aF192.0
aF192.0
aF192.4
aF192.4
aF193.1
aF193.4
aF193.4
aF193.5
aF194.3
aF194.3
aF194.8
aF194.8
aF194.8
aF195.1
aF195.1
aF195.2
aF195.2
aF195.5
aF195.6
aF195.8
aF196.0
aF196.1
aF196.4
aF196.5
aF196.8
aF196.9
aF197.0
aF197.2
aF197.3
aF197.6
aF197.9
aF198.4
aF198.6
aF199.1
aF199.3
aF199.6
aF199.7
aF200.0
aF200.3
aF200.3
aF200.7
aF200.8
aF201.2
aF201.5
aF201.9
aF202.0
aF202.0
aF202.3
aF202.5
aF202.7
aF203.1
aF203.5
aF203.8
aF204.1
aF204.3
aF205.2
aF205.5
aF205.6
aF205.8
aF206.2
aF206.9
aF207.7
aF207.9
aF207.9
aF208.1
aF208.4
aF209.4
aF209.6
aF210.8
aF210.9
aF211.1
aF211.3
aF211.4
aF211.4
aF211.7
aF211.8
aF212.0
aF212.0
aF212.6
aF213.1
aF213.5
aF213.9
aF214.0
aF214.1
aF214.3
aF214.9
aF214.9
aF216.4
aF216.6
aF217.3
aF217.4
aF220.3
aF220.6
aF220.6
aF220.9
aF221.2
aF221.6
aF222.7
aF223.0
aF223.1
aF223.6
aF223.7
aF223.7
aF223.9
aF223.9
aF224.3
aF224.4
aF224.7
aF225.3
aF225.7
aF226.6
aF227.6
aF227.8
aF227.8
aF228.0
aF228.3
aF228.5
aF228.5
aF228.5
aF228.8
aF228.9
aF229.1
aF229.3
aF229.4
aF229.6
aF229.7
aF229.7
aF229.9
aF230.3
aF230.3
aF230.5
aF230.6
aF230.6
aF230.8
aF231.5
aF232.3
aF232.3
aF232.5
aF232.7
aF232.7
aF233.2
aF233.5
aF233.8
aF235.4
aF236.5
aF237.7
aF237.9
aF238.1
aF241.2
aF241.7
aF242.1
aF242.4
aF242.8
aF242.8
aF242.9
aF243.1
aF243.1
aF243.3
aF243.6
aF245.7
aF246.1
aF246.8
aF246.9
aF249.4
aF251.4
aF252.0
aF252.7
aF255.3
aF256.2
aF256.3
aF256.5
aF260.1
aF260.8
aF262.1
aF262.9
aF264.4
aF281.4
aF283.9
aF288.4
aF292.7
aF303.6
aF304.7
aF313.1
aF320.7
aF325.7
aF327.3
aF332.4
aF341.7
aF345.5
aF351.4
aF363.5
a.