(lp0
F31.5
aF33.5
aF33.6
aF33.7
aF33.7
aF34.3
aF34.5
aF35.8
aF36.0
aF36.9
aF37.7
aF38.5
aF39.4
aF40.6
aF41.6
aF41.9
aF42.8
aF42.9
aF43.6
aF43.7
aF44.7
aF46.0
aF47.4
aF47.6
aF48.6
aF49.0
aF50.3
aF52.7
aF52.9
aF53.4
aF53.4
aF53.7
aF54.7
aF55.3
aF55.8
aF56.1
aF56.2
aF57.2
aF57.8
aF57.9
aF57.9
aF59.7
aF59.8
aF60.2
aF60.4
aF61.4
aF62.5
aF62.6
aF63.9
aF64.0
aF65.4
aF65.4
aF65.4
aF65.7
aF66.3
aF66.7
aF67.3
aF67.8
aF68.0
aF69.2
aF71.0
aF71.5
aF71.8
aF72.3
aF72.7
aF73.0
aF73.8
aF74.5
aF75.1
aF75.6
aF76.0
aF76.8
aF76.8
aF77.0
aF78.2
aF78.8
aF79.8
aF90.2
aF91.6
aF92.6
aF94.7
aF95.8
aF98.8
aF99.0
aF99.5
aF99.6
aF100.2
aF100.9
aF101.3
aF102.2
aF102.5
aF103.8
aF105.2
aF105.4
aF106.3
aF106.7
aF106.9
aF108.8
aF128.3
aF140.4
aF147.8
aF148.6
aF149.6
aF150.5
aF158.5
aF163.2
aF163.9
aF165.7
aF166.7
aF168.6
aF168.7
aF169.0
aF169.1
aF169.2
aF170.7
aF171.6
aF173.3
aF177.6
aF177.8
aF187.7
aF188.2
aF190.4
aF190.4
aF190.4
aF191.5
aF191.5
aF192.4
aF193.2
aF194.2
aF194.2
aF194.6
aF195.1
aF195.1
aF197.1
aF198.0
aF198.4
aF198.6
aF198.6
aF198.9
aF198.9
aF199.1
aF199.3
aF199.4
aF200.2
aF200.6
aF200.7
aF201.2
aF201.8
aF201.8
aF204.0
aF205.2
aF205.4
aF205.7
aF206.1
aF207.4
aF207.7
aF207.9
aF208.4
aF209.9
aF210.0
aF210.2
aF210.5
aF210.8
aF211.1
aF211.2
aF211.2
aF211.5
aF211.5
aF211.7
aF211.9
aF212.1
aF212.3
aF212.9
aF214.1
aF214.1
aF214.3
aF214.6
aF214.9
aF215.0
aF215.1
aF215.4
aF215.5
aF215.6
aF215.7
aF215.7
aF215.8
aF215.9
aF216.3
aF216.9
aF217.2
aF218.0
aF219.6
aF220.3
aF221.0
aF221.0
aF221.5
aF221.5
aF221.6
aF221.8
aF222.1
aF223.0
aF225.1
aF225.6
aF226.2
aF226.4
aF226.8
aF226.9
aF227.0
aF227.3
aF227.9
aF228.8
aF229.1
aF230.9
aF231.0
aF231.4
aF231.7
aF232.6
aF232.8
aF233.0
aF233.2
aF233.3
aF233.9
aF234.3
aF236.0
aF236.1
aF237.3
aF237.6
aF237.7
aF238.1
aF238.3
aF238.4
aF238.4
aF238.7
aF238.7
aF239.3
aF240.0
aF240.4
aF241.4
aF244.8
aF246.0
aF246.9
aF248.2
aF249.0
aF249.1
aF251.3
aF251.5
aF251.9
aF254.2
aF254.6
aF254.7
aF254.7
aF255.0
aF255.2
aF255.3
aF256.0
aF256.1
aF256.4
aF256.4
aF256.6
aF256.7
aF256.8
aF256.9
aF257.3
aF257.5
aF257.7
aF257.7
aF257.7
aF257.8
aF257.9
aF258.8
aF259.9
aF260.0
aF260.5
aF260.5
aF260.5
aF260.6
aF261.0
aF261.3
aF261.3
aF261.5
aF262.0
aF262.5
aF262.7
aF262.8
aF262.9
aF263.4
aF263.8
aF264.2
aF264.3
aF264.4
aF265.1
aF265.3
aF265.4
aF265.5
aF265.8
aF266.0
aF266.0
aF266.9
aF266.9
aF267.5
aF267.6
aF268.0
aF269.1
aF270.2
aF271.2
aF271.5
aF272.0
aF277.3
aF283.9
aF285.3
aF292.0
aF293.3
aF294.4
aF297.1
aF297.1
aF297.4
aF297.4
aF301.1
aF307.0
aF307.0
aF307.4
aF308.5
aF309.6
aF313.0
aF314.2
aF323.0
aF323.9
aF328.3
aF330.6
aF332.9
aF336.7
aF336.9
aF337.7
aF338.3
aF338.4
aF340.1
aF341.1
aF341.3
aF341.5
aF343.9
aF346.1
aF349.2
aF349.6
aF351.5
aF351.9
aF351.9
aF353.0
aF353.2
aF355.3
aF356.3
aF356.8
aF358.5
aF358.6
aF360.9
aF361.6
aF361.6
aF361.8
aF361.9
aF363.3
aF363.3
aF363.5
aF363.8
aF364.8
aF365.5
aF365.7
aF366.5
aF366.9
aF368.5
aF369.6
aF370.3
aF371.6
aF372.0
aF372.2
aF373.1
aF373.7
aF373.8
aF374.2
aF375.1
aF375.1
aF375.1
aF375.5
aF376.1
aF376.4
aF376.5
aF377.0
aF377.3
aF377.3
aF377.7
aF378.3
aF378.5
aF378.6
aF379.7
aF379.7
aF379.8
aF380.5
aF381.0
aF381.0
aF381.1
aF381.7
aF381.9
aF382.2
aF383.0
aF383.3
aF383.7
aF384.5
aF385.1
aF385.9
aF387.0
aF387.5
aF387.6
aF388.9
aF390.4
aF390.7
aF392.1
aF392.6
aF392.9
aF393.1
aF393.2
aF393.4
aF394.3
aF394.3
aF394.5
aF395.8
aF396.8
aF396.9
aF397.1
aF398.5
aF398.7
aF399.6
aF400.8
aF401.2
aF401.2
aF401.5
aF402.4
aF402.5
aF402.6
aF402.7
aF402.9
aF403.1
aF403.3
aF403.9
aF404.2
aF404.3
aF404.7
aF405.0
aF405.3
aF405.4
aF405.4
aF405.5
aF405.7
aF406.1
aF406.2
aF406.3
aF406.4
aF406.5
aF406.5
aF406.7
aF406.9
aF407.0
aF407.2
aF407.2
aF407.2
aF407.4
aF407.4
aF407.6
aF407.8
aF408.0
aF408.2
aF408.5
aF408.7
aF408.9
aF409.0
aF409.2
aF409.2
aF409.3
aF409.5
aF409.6
aF409.6
aF409.9
aF410.1
aF410.4
aF410.4
aF410.4
aF410.5
aF410.6
aF410.6
aF410.7
aF410.7
aF411.1
aF411.2
aF411.2
aF411.2
aF411.3
aF411.3
aF411.5
aF411.7
aF411.8
aF411.9
aF411.9
aF411.9
aF412.0
aF412.0
aF412.1
aF412.1
aF412.1
aF412.2
aF412.2
aF412.4
aF412.4
aF412.4
aF412.5
aF412.6
aF412.6
aF412.7
aF412.8
aF412.9
aF413.0
aF413.1
aF413.1
aF413.2
aF413.3
aF413.3
aF413.3
aF413.4
aF413.4
aF413.4
aF413.5
aF413.5
aF413.6
aF413.6
aF413.7
aF413.7
aF413.7
aF413.8
aF413.8
aF414.0
aF414.0
aF414.1
aF414.2
aF414.2
aF414.4
aF414.5
aF414.5
aF414.5
aF414.6
aF414.6
aF414.7
aF414.9
aF415.0
aF415.0
aF415.0
aF415.0
aF415.1
aF415.1
aF415.2
aF415.2
aF415.2
aF415.3
aF415.3
aF415.3
aF415.3
aF415.4
aF415.4
aF415.4
aF415.4
aF415.5
aF415.6
aF415.6
aF415.7
aF415.8
aF415.8
aF415.9
aF415.9
aF416.0
aF416.1
aF416.2
aF416.3
aF416.3
aF416.4
aF416.5
aF416.5
aF416.5
aF416.6
aF416.6
aF416.7
aF416.7
aF416.7
aF416.9
aF416.9
aF416.9
aF416.9
aF417.1
aF417.1
aF417.3
aF417.4
aF417.5
aF417.5
aF417.5
aF417.6
aF417.7
aF417.7
aF417.7
aF417.7
aF417.8
aF417.8
aF417.9
aF417.9
aF418.0
aF418.0
aF418.1
aF418.1
aF418.2
aF418.2
aF418.2
aF418.4
aF418.6
aF418.6
aF418.6
aF418.8
aF418.8
aF418.8
aF419.1
aF419.1
aF419.2
aF419.3
aF419.3
aF419.4
aF419.4
aF419.5
aF419.7
aF419.9
aF419.9
aF419.9
aF420.0
aF420.1
aF420.4
aF420.4
aF420.5
aF420.6
aF420.8
aF421.0
aF421.1
aF421.1
aF421.3
aF421.3
aF421.9
aF421.9
aF422.1
aF422.2
aF422.7
aF423.4
aF424.2
aF424.8
aF425.3
aF425.6
aF425.8
aF426.7
aF427.8
aF428.1
aF428.5
aF430.0
aF430.5
aF431.0
aF431.0
aF431.1
aF431.5
aF431.6
aF431.6
aF432.7
aF432.9
aF433.3
aF433.4
aF433.8
aF434.1
aF434.9
aF435.8
aF436.2
aF436.6
aF437.0
aF437.3
aF438.1
aF438.7
aF439.3
aF440.3
aF440.4
aF440.8
aF441.6
aF441.7
aF441.9
aF442.2
aF442.6
aF443.0
aF443.1
aF443.2
aF443.2
aF443.4
aF444.0
aF444.0
aF444.0
aF444.0
aF444.2
aF444.4
aF444.8
aF444.9
aF444.9
aF445.0
aF445.0
aF445.2
aF445.4
aF445.6
aF445.6
aF445.7
aF445.8
aF446.0
aF446.1
aF446.1
aF446.2
aF446.4
aF446.6
aF446.6
aF447.0
aF447.3
aF447.4
aF447.6
aF448.9
aF450.6
aF451.3
aF470.9
aF475.7
aF476.4
aF476.6
aF476.7
aF476.8
aF477.9
aF478.1
aF479.4
aF479.9
aF480.7
aF480.9
aF481.4
aF481.6
aF481.6
aF481.7
aF481.9
aF482.8
aF483.1
aF483.1
aF483.2
aF483.4
aF483.5
aF483.6
aF483.6
aF483.7
aF483.8
aF483.8
aF484.0
aF484.5
aF484.6
aF484.7
aF484.7
aF484.8
aF484.9
aF484.9
aF485.1
aF485.5
aF485.5
aF485.9
aF485.9
aF486.0
aF486.2
aF486.3
aF486.3
aF486.4
aF486.7
aF486.7
aF486.8
aF487.4
aF487.5
aF487.6
aF487.7
aF487.9
aF487.9
aF488.0
aF488.1
aF488.1
aF488.1
aF488.2
aF488.3
aF488.3
aF488.4
aF488.5
aF488.6
aF488.7
aF488.7
aF488.9
aF489.0
aF489.3
aF489.3
aF489.3
aF489.4
aF489.4
aF489.6
aF489.6
aF489.7
aF489.7
aF489.7
aF489.8
aF489.8
aF489.8
aF489.9
aF490.0
aF490.1
aF490.1
aF490.1
aF490.2
aF490.2
aF490.2
aF490.2
aF490.3
aF490.3
aF490.3
aF490.4
aF490.4
aF490.5
aF490.5
aF490.6
aF490.6
aF490.6
aF490.7
aF490.7
aF490.9
aF491.1
aF491.1
aF491.2
aF491.2
aF491.3
aF491.3
aF491.3
aF491.3
aF491.4
aF491.4
aF491.5
aF491.5
aF491.6
aF491.7
aF491.7
aF491.9
aF491.9
aF491.9
aF491.9
aF492.0
aF492.0
aF492.0
aF492.0
aF492.1
aF492.2
aF492.3
aF492.3
aF492.3
aF492.4
aF492.5
aF492.5
aF492.6
aF492.8
aF492.8
aF492.9
aF492.9
aF493.0
aF493.1
aF493.2
aF493.2
aF493.4
aF493.5
aF493.5
aF493.7
aF493.9
aF494.0
aF494.0
aF494.2
aF494.2
aF494.4
aF494.4
aF494.4
aF494.6
aF494.7
aF494.9
aF494.9
aF495.1
aF495.1
aF495.3
aF495.3
aF495.3
aF495.4
aF495.4
aF495.7
aF495.8
aF495.8
aF495.8
aF495.8
aF496.0
aF496.0
aF496.0
aF496.0
aF496.0
aF496.2
aF496.2
aF496.2
aF496.2
aF496.3
aF496.3
aF496.6
aF496.8
aF496.8
aF496.9
aF497.1
aF497.1
aF497.1
aF497.2
aF497.3
aF497.4
aF497.5
aF497.6
aF497.6
aF497.7
aF497.7
aF497.8
aF497.8
aF497.9
aF497.9
aF498.0
aF498.1
aF498.2
aF498.2
aF498.2
aF498.3
aF498.3
aF498.4
aF498.6
aF498.6
aF498.6
aF498.6
aF498.7
aF498.7
aF498.7
aF498.8
aF499.0
aF499.1
aF499.1
aF499.2
aF499.3
aF499.3
aF499.6
aF499.6
aF499.6
aF499.6
aF499.6
aF499.7
aF499.7
aF499.8
aF499.9
aF500.0
aF500.1
aF500.2
aF500.3
aF500.4
aF500.5
aF500.6
aF500.6
aF500.7
aF500.8
aF500.9
aF500.9
aF500.9
aF501.1
aF501.1
aF501.2
aF501.2
aF501.3
aF501.4
aF501.4
aF501.4
aF501.4
aF501.5
aF501.5
aF501.6
aF501.7
aF501.7
aF501.8
aF501.8
aF501.8
aF501.9
aF502.0
aF502.1
aF502.1
aF502.1
aF502.5
aF502.5
aF502.6
aF502.7
aF502.7
aF502.8
aF503.0
aF503.1
aF503.5
aF503.7
aF503.8
aF503.8
aF504.0
aF504.1
aF504.4
aF504.7
aF504.7
aF504.8
aF504.8
aF504.9
aF505.0
aF505.3
aF505.3
aF505.4
aF505.5
aF506.0
aF506.1
aF506.2
aF506.8
aF507.0
aF507.1
aF507.3
aF507.3
aF507.5
aF507.5
aF507.5
aF507.6
aF507.9
aF508.3
aF508.4
aF508.6
aF508.7
aF508.8
aF508.8
aF509.1
aF509.2
aF509.3
aF509.3
aF509.5
aF509.9
aF510.0
aF510.2
aF510.5
aF510.6
aF510.6
aF510.7
aF511.2
aF511.5
aF511.6
aF512.1
aF512.4
aF513.2
aF513.4
aF513.4
aF513.6
aF513.9
aF514.0
aF514.3
aF514.8
aF514.9
aF515.1
aF516.0
aF516.3
aF516.3
aF516.8
aF516.8
aF517.0
aF518.5
aF520.0
aF520.1
aF520.9
aF529.1
a.