(lp0
F0.3
aF0.7
aF1.3
aF1.3
aF1.3
aF1.5
aF1.5
aF1.6
aF1.6
aF1.6
aF1.7
aF1.7
aF1.8
aF1.9
aF2.0
aF2.1
aF2.2
aF2.4
aF2.4
aF2.5
aF2.6
aF2.6
aF2.7
aF2.7
aF2.8
aF2.8
aF2.8
aF2.8
aF2.9
aF3.0
aF3.0
aF3.1
aF3.2
aF3.2
aF3.3
aF3.4
aF3.4
aF3.4
aF3.5
aF3.6
aF3.7
aF3.7
aF3.7
aF3.8
aF3.9
aF3.9
aF4.0
aF4.0
aF4.1
aF4.2
aF4.2
aF4.2
aF4.2
aF4.2
aF4.2
aF4.3
aF4.3
aF4.3
aF4.4
aF4.5
aF4.5
aF4.5
aF4.6
aF4.6
aF4.6
aF4.7
aF4.7
aF4.7
aF4.8
aF4.8
aF4.8
aF4.9
aF5.0
aF5.0
aF5.0
aF5.0
aF5.1
aF5.1
aF5.1
aF5.1
aF5.3
aF5.3
aF5.4
aF5.4
aF5.4
aF5.4
aF5.5
aF5.5
aF5.5
aF5.5
aF5.6
aF5.7
aF5.7
aF5.8
aF5.8
aF5.9
aF5.9
aF5.9
aF6.0
aF6.0
aF6.1
aF6.1
aF6.1
aF6.2
aF6.2
aF6.3
aF6.3
aF6.4
aF6.4
aF6.4
aF6.5
aF6.5
aF6.5
aF6.5
aF6.5
aF6.6
aF6.6
aF6.6
aF6.7
aF6.7
aF6.7
aF6.8
aF6.8
aF6.9
aF6.9
aF6.9
aF6.9
aF7.0
aF7.0
aF7.0
aF7.1
aF7.1
aF7.1
aF7.2
aF7.2
aF7.3
aF7.3
aF7.3
aF7.3
aF7.3
aF7.3
aF7.3
aF7.4
aF7.4
aF7.4
aF7.4
aF7.5
aF7.5
aF7.5
aF7.5
aF7.5
aF7.6
aF7.6
aF7.6
aF7.7
aF7.7
aF7.7
aF7.7
aF7.8
aF7.9
aF7.9
aF7.9
aF7.9
aF8.0
aF8.0
aF8.1
aF8.1
aF8.1
aF8.1
aF8.2
aF8.2
aF8.3
aF8.3
aF8.3
aF8.4
aF8.4
aF8.4
aF8.5
aF8.5
aF8.6
aF8.6
aF8.7
aF8.7
aF8.7
aF8.8
aF8.8
aF8.8
aF8.9
aF8.9
aF8.9
aF8.9
aF8.9
aF9.0
aF9.2
aF9.2
aF9.2
aF9.2
aF9.3
aF9.4
aF9.4
aF9.4
aF9.4
aF9.5
aF9.5
aF9.5
aF9.5
aF9.5
aF9.6
aF9.6
aF9.6
aF9.6
aF9.6
aF9.6
aF9.6
aF9.7
aF9.7
aF9.8
aF9.8
aF9.8
aF9.8
aF9.8
aF9.8
aF9.9
aF9.9
aF9.9
aF9.9
aF10.0
aF10.0
aF10.0
aF10.0
aF10.0
aF10.0
aF10.0
aF10.0
aF10.0
aF10.0
aF10.1
aF10.1
aF10.1
aF10.2
aF10.3
aF10.3
aF10.4
aF10.4
aF10.4
aF10.4
aF10.5
aF10.5
aF10.5
aF10.5
aF10.5
aF10.5
aF10.6
aF10.6
aF10.6
aF10.7
aF10.7
aF10.7
aF10.7
aF10.7
aF10.8
aF10.8
aF10.8
aF10.8
aF10.8
aF10.9
aF10.9
aF10.9
aF10.9
aF10.9
aF10.9
aF11.0
aF11.0
aF11.1
aF11.1
aF11.2
aF11.2
aF11.2
aF11.3
aF11.3
aF11.4
aF11.4
aF11.4
aF11.5
aF11.5
aF11.5
aF11.5
aF11.5
aF11.6
aF11.6
aF11.6
aF11.6
aF11.6
aF11.6
aF11.6
aF11.7
aF11.7
aF11.7
aF11.7
aF11.7
aF11.8
aF11.8
aF11.8
aF11.8
aF11.8
aF11.9
aF11.9
aF12.0
aF12.0
aF12.0
aF12.0
aF12.0
aF12.0
aF12.1
aF12.1
aF12.1
aF12.1
aF12.2
aF12.2
aF12.4
aF12.4
aF12.4
aF12.4
aF12.4
aF12.5
aF12.5
aF12.5
aF12.6
aF12.6
aF12.6
aF12.6
aF12.6
aF12.6
aF12.7
aF12.8
aF12.8
aF12.8
aF12.8
aF12.8
aF12.8
aF12.8
aF12.8
aF12.8
aF12.9
aF12.9
aF12.9
aF12.9
aF12.9
aF12.9
aF12.9
aF12.9
aF13.0
aF13.0
aF13.0
aF13.2
aF13.2
aF13.2
aF13.2
aF13.2
aF13.3
aF13.4
aF13.4
aF13.5
aF13.5
aF13.5
aF13.6
aF13.6
aF13.7
aF13.7
aF13.7
aF13.7
aF13.8
aF13.8
aF13.8
aF13.8
aF13.9
aF13.9
aF13.9
aF13.9
aF13.9
aF13.9
aF13.9
aF13.9
aF14.0
aF14.1
aF14.1
aF14.1
aF14.2
aF14.2
aF14.3
aF14.3
aF14.3
aF14.3
aF14.3
aF14.4
aF14.4
aF14.4
aF14.4
aF14.5
aF14.5
aF14.5
aF14.5
aF14.5
aF14.6
aF14.6
aF14.6
aF14.6
aF14.6
aF14.7
aF14.7
aF14.7
aF14.7
aF14.8
aF14.8
aF14.8
aF14.9
aF14.9
aF14.9
aF14.9
aF14.9
aF14.9
aF14.9
aF14.9
aF15.0
aF15.0
aF15.0
aF15.0
aF15.0
aF15.1
aF15.1
aF15.1
aF15.1
aF15.1
aF15.2
aF15.2
aF15.2
aF15.2
aF15.2
aF15.3
aF15.3
aF15.3
aF15.3
aF15.3
aF15.3
aF15.3
aF15.4
aF15.4
aF15.4
aF15.4
aF15.4
aF15.5
aF15.5
aF15.5
aF15.6
aF15.6
aF15.6
aF15.6
aF15.7
aF15.7
aF15.7
aF15.7
aF15.7
aF15.7
aF15.7
aF15.7
aF15.8
aF15.8
aF15.8
aF15.9
aF15.9
aF16.0
aF16.0
aF16.0
aF16.0
aF16.1
aF16.1
aF16.1
aF16.1
aF16.1
aF16.1
aF16.2
aF16.2
aF16.2
aF16.3
aF16.3
aF16.3
aF16.3
aF16.3
aF16.3
aF16.3
aF16.3
aF16.4
aF16.4
aF16.4
aF16.4
aF16.5
aF16.5
aF16.5
aF16.5
aF16.6
aF16.6
aF16.6
aF16.6
aF16.6
aF16.6
aF16.6
aF16.7
aF16.7
aF16.7
aF16.7
aF16.7
aF16.8
aF16.8
aF16.8
aF16.8
aF16.9
aF16.9
aF16.9
aF17.0
aF17.0
aF17.0
aF17.1
aF17.1
aF17.1
aF17.1
aF17.2
aF17.2
aF17.2
aF17.2
aF17.2
aF17.2
aF17.2
aF17.2
aF17.2
aF17.3
aF17.3
aF17.3
aF17.3
aF17.3
aF17.3
aF17.3
aF17.3
aF17.4
aF17.4
aF17.4
aF17.5
aF17.5
aF17.5
aF17.6
aF17.6
aF17.6
aF17.6
aF17.6
aF17.6
aF17.6
aF17.6
aF17.6
aF17.6
aF17.6
aF17.7
aF17.7
aF17.7
aF17.8
aF17.8
aF17.9
aF17.9
aF17.9
aF17.9
aF17.9
aF17.9
aF17.9
aF18.0
aF18.0
aF18.0
aF18.0
aF18.1
aF18.1
aF18.1
aF18.1
aF18.2
aF18.2
aF18.2
aF18.2
aF18.2
aF18.3
aF18.3
aF18.4
aF18.4
aF18.4
aF18.4
aF18.4
aF18.4
aF18.4
aF18.4
aF18.4
aF18.5
aF18.5
aF18.5
aF18.5
aF18.5
aF18.6
aF18.6
aF18.6
aF18.7
aF18.7
aF18.7
aF18.7
aF18.8
aF18.8
aF18.8
aF18.8
aF18.8
aF18.9
aF18.9
aF18.9
aF18.9
aF19.0
aF19.0
aF19.0
aF19.0
aF19.1
aF19.1
aF19.1
aF19.1
aF19.2
aF19.3
aF19.3
aF19.3
aF19.3
aF19.4
aF19.4
aF19.4
aF19.4
aF19.4
aF19.4
aF19.4
aF19.5
aF19.5
aF19.5
aF19.5
aF19.5
aF19.5
aF19.5
aF19.5
aF19.5
aF19.6
aF19.6
aF19.6
aF19.6
aF19.6
aF19.6
aF19.6
aF19.7
aF19.7
aF19.7
aF19.7
aF19.7
aF19.7
aF19.7
aF19.7
aF19.7
aF19.7
aF19.7
aF19.7
aF19.8
aF19.8
aF19.8
aF19.8
aF19.8
aF19.8
aF19.9
aF19.9
aF19.9
aF19.9
aF20.0
aF20.0
aF20.0
aF20.0
aF20.1
aF20.1
aF20.1
aF20.1
aF20.1
aF20.1
aF20.2
aF20.2
aF20.2
aF20.2
aF20.2
aF20.2
aF20.3
aF20.3
aF20.3
aF20.3
aF20.3
aF20.4
aF20.4
aF20.4
aF20.4
aF20.5
aF20.5
aF20.5
aF20.6
aF20.6
aF20.6
aF20.6
aF20.6
aF20.6
aF20.6
aF20.6
aF20.7
aF20.7
aF20.8
aF20.8
aF20.9
aF20.9
aF20.9
aF20.9
aF20.9
aF20.9
aF20.9
aF20.9
aF21.0
aF21.0
aF21.0
aF21.0
aF21.1
aF21.1
aF21.1
aF21.1
aF21.1
aF21.1
aF21.1
aF21.1
aF21.1
aF21.2
aF21.2
aF21.2
aF21.2
aF21.2
aF21.3
aF21.3
aF21.3
aF21.3
aF21.3
aF21.3
aF21.3
aF21.3
aF21.3
aF21.4
aF21.4
aF21.4
aF21.4
aF21.5
aF21.5
aF21.5
aF21.5
aF21.5
aF21.5
aF21.5
aF21.5
aF21.5
aF21.6
aF21.6
aF21.6
aF21.7
aF21.7
aF21.7
aF21.7
aF21.7
aF21.7
aF21.7
aF21.8
aF21.8
aF21.8
aF21.8
aF21.9
aF21.9
aF21.9
aF21.9
aF22.0
aF22.0
aF22.0
aF22.0
aF22.0
aF22.1
aF22.1
aF22.1
aF22.2
aF22.2
aF22.2
aF22.2
aF22.2
aF22.2
aF22.3
aF22.3
aF22.3
aF22.3
aF22.3
aF22.3
aF22.4
aF22.4
aF22.4
aF22.4
aF22.4
aF22.4
aF22.5
aF22.5
aF22.5
aF22.5
aF22.5
aF22.5
aF22.5
aF22.6
aF22.6
aF22.6
aF22.6
aF22.6
aF22.6
aF22.6
aF22.6
aF22.6
aF22.6
aF22.7
aF22.7
aF22.7
aF22.7
aF22.7
aF22.7
aF22.7
aF22.7
aF22.7
aF22.7
aF22.8
aF22.8
aF22.8
aF22.9
aF22.9
aF22.9
aF23.0
aF23.0
aF23.1
aF23.1
aF23.1
aF23.1
aF23.1
aF23.1
aF23.2
aF23.2
aF23.2
aF23.2
aF23.2
aF23.2
aF23.2
aF23.3
aF23.3
aF23.3
aF23.3
aF23.3
aF23.3
aF23.3
aF23.3
aF23.4
aF23.4
aF23.4
aF23.4
aF23.5
aF23.5
aF23.5
aF23.5
aF23.6
aF23.6
aF23.6
aF23.6
aF23.6
aF23.6
aF23.6
aF23.7
aF23.8
aF23.8
aF23.8
aF23.8
aF23.8
aF23.9
aF23.9
aF23.9
aF23.9
aF23.9
aF23.9
aF23.9
aF24.0
aF24.0
aF24.0
aF24.0
aF24.0
aF24.0
aF24.0
aF24.0
aF24.1
aF24.1
aF24.1
aF24.1
aF24.1
aF24.1
aF24.2
aF24.2
aF24.2
aF24.2
aF24.2
aF24.2
aF24.3
aF24.3
aF24.3
aF24.3
aF24.3
aF24.3
aF24.3
aF24.3
aF24.3
aF24.4
aF24.4
aF24.4
aF24.4
aF24.4
aF24.4
aF24.4
aF24.4
aF24.5
aF24.5
aF24.5
aF24.5
aF24.5
aF24.5
aF24.5
aF24.6
aF24.6
aF24.6
aF24.6
aF24.6
aF24.6
aF24.7
aF24.7
aF24.7
aF24.7
aF24.7
aF24.8
aF24.8
aF24.8
aF24.8
aF24.8
aF24.8
aF24.9
aF24.9
aF24.9
aF24.9
aF25.0
aF25.0
aF25.0
aF25.0
aF25.0
aF25.0
aF25.1
aF25.1
aF25.1
aF25.1
aF25.1
aF25.2
aF25.2
aF25.2
aF25.2
aF25.2
aF25.3
aF25.3
aF25.3
aF25.3
aF25.4
aF25.4
aF25.4
aF25.4
aF25.4
aF25.5
aF25.6
aF25.6
aF25.6
aF25.6
aF25.7
aF25.7
aF25.7
aF25.7
aF25.7
aF25.7
aF25.7
aF25.7
aF25.8
aF25.8
aF25.8
aF25.8
aF25.9
aF25.9
aF25.9
aF25.9
aF26.0
aF26.0
aF26.0
aF26.0
aF26.0
aF26.1
aF26.1
aF26.1
aF26.1
aF26.2
aF26.2
aF26.3
aF26.3
aF26.3
aF26.3
aF26.3
aF26.3
aF26.3
aF26.3
aF26.3
aF26.4
aF26.4
aF26.4
aF26.5
aF26.5
aF26.5
aF26.5
aF26.5
aF26.6
aF26.6
aF26.6
aF26.6
aF26.7
aF26.7
aF26.7
aF26.8
aF26.8
aF26.8
aF26.8
aF26.8
aF26.8
aF26.8
aF26.8
aF26.8
aF26.8
aF26.8
aF26.9
aF26.9
aF26.9
aF26.9
aF26.9
aF27.0
aF27.0
aF27.0
aF27.0
aF27.0
aF27.1
aF27.1
aF27.1
aF27.2
aF27.2
aF27.3
aF27.3
aF27.3
aF27.3
aF27.3
aF27.3
aF27.3
aF27.3
aF27.4
aF27.4
aF27.4
aF27.4
aF27.4
aF27.5
aF27.6
aF27.7
aF27.7
aF27.7
aF27.7
aF27.7
aF27.7
aF27.7
aF27.8
aF27.8
aF27.8
aF27.8
aF27.8
aF27.8
aF27.9
aF27.9
aF27.9
aF27.9
aF28.0
aF28.0
aF28.0
aF28.0
aF28.0
aF28.1
aF28.1
aF28.1
aF28.1
aF28.2
aF28.2
aF28.2
aF28.2
aF28.3
aF28.3
aF28.3
aF28.3
aF28.3
aF28.3
aF28.3
aF28.3
aF28.4
aF28.4
aF28.4
aF28.4
aF28.4
aF28.4
aF28.4
aF28.4
aF28.5
aF28.5
aF28.5
aF28.6
aF28.6
aF28.6
aF28.7
aF28.7
aF28.7
aF28.8
aF28.8
aF28.8
aF28.9
aF28.9
aF28.9
aF28.9
aF28.9
aF29.0
aF29.0
aF29.0
aF29.0
aF29.0
aF29.1
aF29.1
aF29.1
aF29.1
aF29.1
aF29.1
aF29.1
aF29.1
aF29.1
aF29.1
aF29.2
aF29.2
aF29.2
aF29.2
aF29.2
aF29.2
aF29.2
aF29.3
aF29.3
aF29.3
aF29.3
aF29.3
aF29.3
aF29.3
aF29.3
aF29.3
aF29.3
aF29.4
aF29.4
aF29.4
aF29.4
aF29.5
aF29.5
aF29.5
aF29.5
aF29.5
aF29.5
aF29.5
aF29.5
aF29.5
aF29.6
aF29.6
aF29.6
aF29.6
aF29.6
aF29.6
aF29.7
aF29.7
aF29.7
aF29.9
aF29.9
aF29.9
aF30.0
aF30.0
aF30.0
aF30.0
aF30.0
aF30.1
aF30.1
aF30.1
aF30.1
aF30.1
aF30.1
aF30.2
aF30.2
aF30.2
aF30.2
aF30.2
aF30.3
aF30.3
aF30.3
aF30.3
aF30.3
aF30.3
aF30.3
aF30.3
aF30.3
aF30.3
aF30.3
aF30.3
aF30.4
aF30.5
aF30.5
aF30.5
aF30.5
aF30.5
aF30.5
aF30.5
aF30.5
aF30.5
aF30.5
aF30.6
aF30.6
aF30.6
aF30.6
aF30.6
aF30.7
aF30.7
aF30.7
aF30.7
aF30.7
aF30.7
aF30.7
aF30.8
aF30.8
aF30.8
aF30.8
aF30.9
aF30.9
aF30.9
aF30.9
aF30.9
aF30.9
aF30.9
aF30.9
aF31.0
aF31.0
aF31.0
aF31.0
aF31.0
aF31.0
aF31.0
aF31.1
aF31.1
aF31.1
aF31.2
aF31.2
aF31.2
aF31.2
aF31.3
aF31.3
aF31.3
aF31.3
aF31.3
aF31.3
aF31.4
aF31.4
aF31.4
aF31.4
aF31.4
aF31.4
aF31.4
aF31.4
aF31.5
aF31.5
aF31.5
aF31.5
aF31.5
aF31.6
aF31.6
aF31.6
aF31.7
aF31.7
aF31.7
aF31.7
aF31.7
aF31.8
aF31.8
aF31.8
aF31.8
aF31.9
aF31.9
aF31.9
aF31.9
aF31.9
aF31.9
aF31.9
aF31.9
aF32.0
aF32.0
aF32.0
aF32.0
aF32.0
aF32.0
aF32.1
aF32.1
aF32.1
aF32.1
aF32.2
aF32.2
aF32.2
aF32.2
aF32.2
aF32.3
aF32.3
aF32.3
aF32.4
aF32.4
aF32.4
aF32.4
aF32.4
aF32.5
aF32.5
aF32.5
aF32.5
aF32.5
aF32.5
aF32.5
aF32.6
aF32.6
aF32.6
aF32.6
aF32.6
aF32.7
aF32.7
aF32.7
aF32.7
aF32.8
aF32.8
aF32.8
aF32.8
aF32.8
aF32.9
aF32.9
aF32.9
aF32.9
aF32.9
aF32.9
aF32.9
aF32.9
aF32.9
aF32.9
aF33.0
aF33.0
aF33.0
aF33.0
aF33.0
aF33.0
aF33.0
aF33.0
aF33.1
aF33.1
aF33.1
aF33.1
aF33.1
aF33.1
aF33.1
aF33.1
aF33.2
aF33.2
aF33.2
aF33.2
aF33.2
aF33.2
aF33.2
aF33.2
aF33.3
aF33.3
aF33.3
aF33.3
aF33.3
aF33.3
aF33.3
aF33.3
aF33.4
aF33.4
aF33.4
aF33.4
aF33.5
aF33.5
aF33.5
aF33.6
aF33.6
aF33.6
aF33.6
aF33.7
aF33.7
aF33.8
aF33.8
aF33.9
aF33.9
aF34.0
aF34.0
aF34.0
aF34.0
aF34.0
aF34.0
aF34.0
aF34.0
aF34.0
aF34.0
aF34.1
aF34.1
aF34.1
aF34.1
aF34.1
aF34.1
aF34.1
aF34.1
aF34.2
aF34.2
aF34.2
aF34.2
aF34.2
aF34.2
aF34.2
aF34.2
aF34.2
aF34.2
aF34.3
aF34.3
aF34.3
aF34.3
aF34.4
aF34.4
aF34.4
aF34.4
aF34.4
aF34.4
aF34.5
aF34.5
aF34.5
aF34.5
aF34.5
aF34.5
aF34.6
aF34.6
aF34.6
aF34.6
aF34.6
aF34.7
aF34.7
aF34.7
aF34.7
aF34.7
aF34.7
aF34.7
aF34.8
aF34.8
aF34.8
aF34.8
aF34.8
aF34.8
aF34.8
aF34.9
aF34.9
aF34.9
aF34.9
aF34.9
aF34.9
aF34.9
aF35.0
aF35.0
aF35.0
aF35.0
aF35.0
aF35.0
aF35.1
aF35.1
aF35.1
aF35.1
aF35.1
aF35.1
aF35.1
aF35.2
aF35.2
aF35.2
aF35.2
aF35.2
aF35.2
aF35.2
aF35.2
aF35.3
aF35.3
aF35.3
aF35.3
aF35.3
aF35.3
aF35.3
aF35.4
aF35.4
aF35.4
aF35.4
aF35.4
aF35.4
aF35.4
aF35.5
aF35.5
aF35.5
aF35.5
aF35.5
aF35.5
aF35.5
aF35.6
aF35.6
aF35.6
aF35.6
aF35.7
aF35.7
aF35.7
aF35.7
aF35.7
aF35.8
aF35.8
aF35.8
aF35.9
aF35.9
aF35.9
aF35.9
aF36.0
aF36.0
aF36.0
aF36.0
aF36.0
aF36.0
aF36.0
aF36.0
aF36.0
aF36.0
aF36.1
aF36.2
aF36.2
aF36.2
aF36.3
aF36.3
aF36.3
aF36.3
aF36.3
aF36.4
aF36.4
aF36.4
aF36.4
aF36.4
aF36.4
aF36.4
aF36.5
aF36.5
aF36.5
aF36.5
aF36.5
aF36.6
aF36.6
aF36.6
aF36.6
aF36.6
aF36.6
aF36.7
aF36.7
aF36.7
aF36.7
aF36.8
aF36.8
aF36.8
aF36.8
aF36.9
aF36.9
aF36.9
aF36.9
aF36.9
aF36.9
aF36.9
aF36.9
aF36.9
aF37.0
aF37.0
aF37.0
aF37.0
aF37.0
aF37.1
aF37.1
aF37.1
aF37.2
aF37.2
aF37.2
aF37.2
aF37.2
aF37.2
aF37.2
aF37.2
aF37.2
aF37.2
aF37.2
aF37.3
aF37.3
aF37.3
aF37.3
aF37.4
aF37.4
aF37.4
aF37.5
aF37.5
aF37.5
aF37.5
aF37.5
aF37.5
aF37.5
aF37.5
aF37.5
aF37.6
aF37.6
aF37.6
aF37.6
aF37.6
aF37.6
aF37.6
aF37.6
aF37.7
aF37.7
aF37.7
aF37.8
aF37.8
aF37.8
aF37.8
aF37.9
aF37.9
aF37.9
aF37.9
aF38.0
aF38.0
aF38.0
aF38.0
aF38.0
aF38.1
aF38.1
aF38.1
aF38.1
aF38.1
aF38.1
aF38.1
aF38.1
aF38.1
aF38.1
aF38.1
aF38.2
aF38.2
aF38.2
aF38.2
aF38.2
aF38.2
aF38.2
aF38.2
aF38.3
aF38.3
aF38.3
aF38.3
aF38.4
aF38.4
aF38.4
aF38.4
aF38.5
aF38.5
aF38.5
aF38.5
aF38.5
aF38.5
aF38.6
aF38.6
aF38.6
aF38.6
aF38.7
aF38.7
aF38.7
aF38.7
aF38.8
aF38.9
aF38.9
aF38.9
aF38.9
aF38.9
aF38.9
aF39.0
aF39.0
aF39.0
aF39.0
aF39.1
aF39.1
aF39.1
aF39.1
aF39.2
aF39.2
aF39.2
aF39.2
aF39.3
aF39.3
aF39.3
aF39.3
aF39.3
aF39.3
aF39.3
aF39.3
aF39.4
aF39.4
aF39.4
aF39.4
aF39.4
aF39.5
aF39.6
aF39.6
aF39.6
aF39.6
aF39.7
aF39.7
aF39.7
aF39.7
aF39.7
aF39.7
aF39.7
aF39.7
aF39.7
aF39.7
aF39.8
aF39.8
aF39.8
aF39.8
aF39.8
aF39.8
aF39.8
aF39.8
aF39.8
aF39.8
aF39.8
aF39.9
aF39.9
aF39.9
aF39.9
aF39.9
aF40.0
aF40.0
aF40.0
aF40.0
aF40.0
aF40.0
aF40.0
aF40.1
aF40.1
aF40.2
aF40.2
aF40.2
aF40.2
aF40.2
aF40.2
aF40.2
aF40.3
aF40.3
aF40.3
aF40.3
aF40.3
aF40.4
aF40.4
aF40.4
aF40.4
aF40.4
aF40.4
aF40.5
aF40.5
aF40.5
aF40.5
aF40.5
aF40.5
aF40.5
aF40.6
aF40.6
aF40.6
aF40.6
aF40.7
aF40.7
aF40.7
aF40.7
aF40.7
aF40.7
aF40.7
aF40.8
aF40.8
aF40.8
aF40.8
aF40.8
aF40.9
aF40.9
aF40.9
aF40.9
aF40.9
aF40.9
aF41.0
aF41.0
aF41.0
aF41.0
aF41.0
aF41.0
aF41.1
aF41.1
aF41.1
aF41.1
aF41.1
aF41.1
aF41.1
aF41.1
aF41.2
aF41.2
aF41.2
aF41.2
aF41.2
aF41.3
aF41.3
aF41.3
aF41.3
aF41.3
aF41.4
aF41.4
aF41.4
aF41.4
aF41.4
aF41.5
aF41.5
aF41.5
aF41.5
aF41.5
aF41.5
aF41.5
aF41.6
aF41.6
aF41.6
aF41.6
aF41.6
aF41.6
aF41.6
aF41.7
aF41.7
aF41.7
aF41.7
aF41.8
aF41.8
aF41.8
aF41.8
aF41.8
aF41.8
aF41.9
aF41.9
aF41.9
aF41.9
aF41.9
aF41.9
aF41.9
aF41.9
aF42.0
aF42.0
aF42.1
aF42.1
aF42.1
aF42.1
aF42.1
aF42.2
aF42.2
aF42.3
aF42.3
aF42.3
aF42.3
aF42.4
aF42.4
aF42.4
aF42.4
aF42.4
aF42.5
aF42.5
aF42.5
aF42.5
aF42.5
aF42.5
aF42.5
aF42.5
aF42.6
aF42.6
aF42.6
aF42.6
aF42.6
aF42.6
aF42.6
aF42.7
aF42.7
aF42.7
aF42.7
aF42.7
aF42.7
aF42.7
aF42.8
aF42.8
aF42.8
aF42.8
aF42.9
aF42.9
aF42.9
aF42.9
aF42.9
aF42.9
aF42.9
aF43.0
aF43.0
aF43.0
aF43.0
aF43.0
aF43.1
aF43.1
aF43.1
aF43.1
aF43.2
aF43.2
aF43.2
aF43.2
aF43.2
aF43.2
aF43.3
aF43.3
aF43.3
aF43.3
aF43.3
aF43.4
aF43.4
aF43.4
aF43.4
aF43.5
aF43.5
aF43.5
aF43.5
aF43.5
aF43.6
aF43.6
aF43.6
aF43.6
aF43.7
aF43.7
aF43.7
aF43.8
aF43.8
aF43.8
aF43.8
aF43.8
aF43.9
aF43.9
aF43.9
aF43.9
aF43.9
aF43.9
aF43.9
aF43.9
aF44.0
aF44.0
aF44.0
aF44.0
aF44.0
aF44.0
aF44.1
aF44.1
aF44.1
aF44.1
aF44.2
aF44.2
aF44.2
aF44.2
aF44.2
aF44.2
aF44.3
aF44.3
aF44.3
aF44.3
aF44.3
aF44.3
aF44.3
aF44.4
aF44.4
aF44.4
aF44.4
aF44.4
aF44.4
aF44.4
aF44.4
aF44.4
aF44.5
aF44.5
aF44.5
aF44.5
aF44.5
aF44.6
aF44.6
aF44.6
aF44.6
aF44.6
aF44.6
aF44.6
aF44.6
aF44.6
aF44.6
aF44.7
aF44.7
aF44.8
aF44.8
aF44.8
aF44.8
aF44.8
aF44.8
aF44.9
aF44.9
aF44.9
aF44.9
aF44.9
aF45.0
aF45.0
aF45.0
aF45.0
aF45.0
aF45.1
aF45.1
aF45.1
aF45.1
aF45.1
aF45.1
aF45.1
aF45.1
aF45.1
aF45.1
aF45.2
aF45.2
aF45.2
aF45.3
aF45.4
aF45.4
aF45.6
aF45.6
aF45.6
aF45.6
aF45.6
aF45.7
aF45.7
aF45.7
aF45.7
aF45.7
aF45.7
aF45.7
aF45.8
aF45.8
aF45.8
aF45.8
aF45.8
aF45.9
aF45.9
aF45.9
aF46.1
aF46.1
aF46.1
aF46.1
aF46.1
aF46.1
aF46.1
aF46.2
aF46.2
aF46.2
aF46.2
aF46.2
aF46.2
aF46.2
aF46.2
aF46.3
aF46.3
aF46.4
aF46.4
aF46.4
aF46.4
aF46.5
aF46.5
aF46.5
aF46.5
aF46.5
aF46.6
aF46.6
aF46.6
aF46.6
aF46.6
aF46.7
aF46.7
aF46.7
aF46.7
aF46.7
aF46.8
aF46.8
aF46.8
aF46.8
aF46.8
aF46.9
aF46.9
aF46.9
aF46.9
aF46.9
aF47.0
aF47.0
aF47.0
aF47.0
aF47.0
aF47.0
aF47.0
aF47.1
aF47.1
aF47.1
aF47.1
aF47.1
aF47.1
aF47.2
aF47.2
aF47.2
aF47.2
aF47.2
aF47.3
aF47.3
aF47.3
aF47.3
aF47.3
aF47.3
aF47.3
aF47.3
aF47.3
aF47.4
aF47.4
aF47.4
aF47.4
aF47.5
aF47.5
aF47.5
aF47.5
aF47.5
aF47.5
aF47.5
aF47.6
aF47.6
aF47.6
aF47.6
aF47.6
aF47.6
aF47.6
aF47.6
aF47.7
aF47.7
aF47.7
aF47.7
aF47.7
aF47.7
aF47.8
aF47.8
aF47.8
aF47.8
aF47.8
aF47.8
aF47.9
aF47.9
aF48.0
aF48.1
aF48.1
aF48.1
aF48.1
aF48.1
aF48.1
aF48.1
aF48.2
aF48.2
aF48.2
aF48.2
aF48.3
aF48.3
aF48.3
aF48.3
aF48.3
aF48.3
aF48.4
aF48.4
aF48.4
aF48.4
aF48.4
aF48.4
aF48.4
aF48.5
aF48.5
aF48.5
aF48.5
aF48.5
aF48.5
aF48.5
aF48.5
aF48.5
aF48.5
aF48.6
aF48.6
aF48.6
aF48.6
aF48.6
aF48.6
aF48.6
aF48.7
aF48.7
aF48.7
aF48.8
aF48.8
aF48.8
aF48.8
aF48.8
aF48.9
aF48.9
aF48.9
aF48.9
aF48.9
aF48.9
aF48.9
aF48.9
aF48.9
aF48.9
aF49.0
aF49.0
aF49.0
aF49.0
aF49.0
aF49.0
aF49.0
aF49.0
aF49.1
aF49.1
aF49.2
aF49.2
aF49.2
aF49.2
aF49.2
aF49.3
aF49.3
aF49.3
aF49.3
aF49.3
aF49.4
aF49.4
aF49.4
aF49.4
aF49.4
aF49.4
aF49.4
aF49.4
aF49.5
aF49.5
aF49.6
aF49.6
aF49.6
aF49.6
aF49.6
aF49.6
aF49.7
aF49.7
aF49.7
aF49.8
aF49.8
aF49.8
aF49.8
aF49.9
aF49.9
aF49.9
aF49.9
aF49.9
aF50.0
aF50.0
aF50.0
aF50.0
aF50.0
aF50.1
aF50.1
aF50.1
aF50.1
aF50.1
aF50.1
aF50.1
aF50.1
aF50.2
aF50.2
aF50.2
aF50.2
aF50.3
aF50.3
aF50.3
aF50.3
aF50.3
aF50.3
aF50.4
aF50.4
aF50.5
aF50.5
aF50.5
aF50.5
aF50.5
aF50.5
aF50.6
aF50.6
aF50.6
aF50.7
aF50.7
aF50.7
aF50.7
aF50.8
aF50.8
aF50.8
aF50.8
aF50.8
aF50.8
aF50.8
aF50.9
aF50.9
aF50.9
aF50.9
aF50.9
aF50.9
aF51.0
aF51.0
aF51.0
aF51.0
aF51.0
aF51.0
aF51.1
aF51.1
aF51.1
aF51.1
aF51.2
aF51.2
aF51.2
aF51.2
aF51.2
aF51.3
aF51.3
aF51.3
aF51.3
aF51.3
aF51.4
aF51.4
aF51.4
aF51.5
aF51.5
aF51.5
aF51.5
aF51.6
aF51.6
aF51.6
aF51.6
aF51.7
aF51.7
aF51.7
aF51.7
aF51.8
aF51.8
aF51.8
aF51.8
aF51.8
aF51.8
aF51.8
aF51.9
aF51.9
aF51.9
aF51.9
aF52.0
aF52.0
aF52.0
aF52.0
aF52.0
aF52.0
aF52.0
aF52.1
aF52.1
aF52.1
aF52.1
aF52.1
aF52.2
aF52.2
aF52.2
aF52.2
aF52.2
aF52.3
aF52.3
aF52.3
aF52.4
aF52.4
aF52.4
aF52.4
aF52.4
aF52.4
aF52.5
aF52.5
aF52.5
aF52.5
aF52.5
aF52.5
aF52.6
aF52.6
aF52.6
aF52.6
aF52.6
aF52.6
aF52.7
aF52.7
aF52.7
aF52.7
aF52.7
aF52.7
aF52.8
aF52.9
aF52.9
aF52.9
aF53.0
aF53.0
aF53.0
aF53.0
aF53.1
aF53.1
aF53.1
aF53.2
aF53.2
aF53.3
aF53.3
aF53.3
aF53.3
aF53.3
aF53.3
aF53.3
aF53.4
aF53.4
aF53.4
aF53.5
aF53.5
aF53.5
aF53.6
aF53.6
aF53.6
aF53.6
aF53.6
aF53.7
aF53.7
aF53.7
aF53.7
aF53.7
aF53.7
aF53.8
aF53.8
aF53.8
aF53.8
aF53.9
aF53.9
aF53.9
aF53.9
aF54.0
aF54.0
aF54.0
aF54.1
aF54.1
aF54.1
aF54.1
aF54.1
aF54.1
aF54.1
aF54.1
aF54.1
aF54.2
aF54.2
aF54.2
aF54.2
aF54.2
aF54.2
aF54.2
aF54.3
aF54.3
aF54.3
aF54.3
aF54.3
aF54.4
aF54.4
aF54.4
aF54.4
aF54.4
aF54.4
aF54.5
aF54.5
aF54.5
aF54.5
aF54.6
aF54.6
aF54.6
aF54.6
aF54.6
aF54.7
aF54.7
aF54.8
aF54.8
aF54.8
aF54.8
aF54.8
aF54.8
aF54.8
aF54.8
aF54.8
aF54.8
aF54.9
aF54.9
aF54.9
aF55.0
aF55.0
aF55.0
aF55.0
aF55.0
aF55.1
aF55.1
aF55.1
aF55.1
aF55.1
aF55.1
aF55.1
aF55.1
aF55.1
aF55.1
aF55.1
aF55.1
aF55.2
aF55.2
aF55.2
aF55.2
aF55.2
aF55.2
aF55.2
aF55.3
aF55.3
aF55.3
aF55.3
aF55.3
aF55.3
aF55.4
aF55.4
aF55.4
aF55.4
aF55.4
aF55.4
aF55.4
aF55.5
aF55.5
aF55.5
aF55.5
aF55.5
aF55.5
aF55.5
aF55.5
aF55.5
aF55.5
aF55.6
aF55.6
aF55.6
aF55.6
aF55.6
aF55.6
aF55.6
aF55.6
aF55.6
aF55.6
aF55.7
aF55.7
aF55.7
aF55.7
aF55.7
aF55.8
aF55.8
aF55.8
aF55.8
aF55.8
aF55.8
aF55.9
aF55.9
aF55.9
aF55.9
aF56.0
aF56.0
aF56.0
aF56.0
aF56.1
aF56.1
aF56.1
aF56.1
aF56.1
aF56.1
aF56.1
aF56.2
aF56.2
aF56.2
aF56.2
aF56.2
aF56.3
aF56.3
aF56.3
aF56.3
aF56.3
aF56.4
aF56.4
aF56.5
aF56.5
aF56.5
aF56.6
aF56.6
aF56.7
aF56.7
aF56.7
aF56.7
aF56.7
aF56.8
aF56.8
aF56.8
aF56.8
aF56.9
aF56.9
aF56.9
aF56.9
aF56.9
aF57.0
aF57.1
aF57.1
aF57.1
aF57.1
aF57.1
aF57.2
aF57.2
aF57.2
aF57.2
aF57.2
aF57.3
aF57.3
aF57.3
aF57.3
aF57.3
aF57.3
aF57.3
aF57.3
aF57.4
aF57.4
aF57.4
aF57.4
aF57.4
aF57.4
aF57.5
aF57.5
aF57.5
aF57.5
aF57.5
aF57.6
aF57.6
aF57.6
aF57.6
aF57.6
aF57.6
aF57.6
aF57.6
aF57.7
aF57.7
aF57.7
aF57.8
aF57.8
aF57.8
aF57.9
aF57.9
aF57.9
aF57.9
aF58.0
aF58.0
aF58.0
aF58.0
aF58.0
aF58.1
aF58.1
aF58.1
aF58.2
aF58.2
aF58.2
aF58.2
aF58.2
aF58.2
aF58.2
aF58.2
aF58.3
aF58.3
aF58.3
aF58.3
aF58.4
aF58.4
aF58.4
aF58.4
aF58.5
aF58.5
aF58.5
aF58.5
aF58.5
aF58.5
aF58.6
aF58.6
aF58.6
aF58.7
aF58.7
aF58.7
aF58.7
aF58.7
aF58.8
aF58.8
aF58.8
aF58.8
aF58.9
aF58.9
aF58.9
aF58.9
aF59.0
aF59.0
aF59.0
aF59.0
aF59.0
aF59.1
aF59.1
aF59.2
aF59.2
aF59.2
aF59.2
aF59.2
aF59.2
aF59.3
aF59.3
aF59.3
aF59.3
aF59.3
aF59.3
aF59.3
aF59.3
aF59.4
aF59.4
aF59.4
aF59.4
aF59.4
aF59.4
aF59.4
aF59.4
aF59.4
aF59.4
aF59.5
aF59.6
aF59.6
aF59.6
aF59.6
aF59.7
aF59.7
aF59.7
aF59.7
aF59.7
aF59.8
aF59.8
aF59.8
aF59.8
aF59.8
aF59.8
aF59.8
aF59.8
aF59.9
aF59.9
aF59.9
aF59.9
aF60.0
aF60.0
aF60.0
aF60.0
aF60.0
aF60.0
aF60.0
aF60.1
aF60.1
aF60.1
aF60.1
aF60.1
aF60.1
aF60.1
aF60.2
aF60.2
aF60.3
aF60.3
aF60.3
aF60.3
aF60.3
aF60.4
aF60.4
aF60.4
aF60.4
aF60.4
aF60.5
aF60.5
aF60.5
aF60.6
aF60.6
aF60.7
aF60.7
aF60.7
aF60.7
aF60.8
aF60.8
aF60.8
aF60.8
aF60.8
aF60.8
aF60.8
aF60.8
aF60.8
aF60.9
aF60.9
aF60.9
aF60.9
aF60.9
aF60.9
aF60.9
aF61.0
aF61.0
aF61.1
aF61.1
aF61.1
aF61.1
aF61.2
aF61.2
aF61.2
aF61.2
aF61.2
aF61.2
aF61.3
aF61.3
aF61.3
aF61.3
aF61.3
aF61.3
aF61.3
aF61.4
aF61.4
aF61.4
aF61.4
aF61.4
aF61.5
aF61.5
aF61.5
aF61.5
aF61.5
aF61.5
aF61.6
aF61.6
aF61.6
aF61.6
aF61.6
aF61.7
aF61.7
aF61.7
aF61.7
aF61.7
aF61.7
aF61.7
aF61.7
aF61.8
aF61.9
aF61.9
aF61.9
aF61.9
aF61.9
aF61.9
aF62.0
aF62.0
aF62.0
aF62.0
aF62.0
aF62.1
aF62.1
aF62.1
aF62.1
aF62.1
aF62.1
aF62.1
aF62.1
aF62.2
aF62.2
aF62.2
aF62.2
aF62.3
aF62.3
aF62.3
aF62.3
aF62.3
aF62.3
aF62.3
aF62.3
aF62.4
aF62.4
aF62.4
aF62.4
aF62.4
aF62.4
aF62.4
aF62.5
aF62.5
aF62.5
aF62.5
aF62.6
aF62.6
aF62.6
aF62.7
aF62.7
aF62.7
aF62.7
aF62.7
aF62.8
aF62.8
aF62.8
aF62.8
aF62.8
aF62.9
aF62.9
aF62.9
aF62.9
aF63.0
aF63.0
aF63.1
aF63.1
aF63.1
aF63.1
aF63.1
aF63.1
aF63.1
aF63.2
aF63.2
aF63.2
aF63.2
aF63.2
aF63.2
aF63.2
aF63.2
aF63.2
aF63.3
aF63.3
aF63.4
aF63.4
aF63.4
aF63.4
aF63.4
aF63.4
aF63.4
aF63.5
aF63.5
aF63.5
aF63.5
aF63.5
aF63.5
aF63.5
aF63.5
aF63.6
aF63.6
aF63.6
aF63.6
aF63.6
aF63.7
aF63.7
aF63.7
aF63.7
aF63.7
aF63.7
aF63.8
aF63.8
aF63.8
aF63.9
aF63.9
aF63.9
aF63.9
aF63.9
aF64.0
aF64.0
aF64.0
aF64.0
aF64.1
aF64.1
aF64.1
aF64.1
aF64.1
aF64.1
aF64.2
aF64.2
aF64.2
aF64.2
aF64.2
aF64.3
aF64.3
aF64.3
aF64.3
aF64.4
aF64.4
aF64.4
aF64.4
aF64.4
aF64.4
aF64.5
aF64.5
aF64.5
aF64.6
aF64.6
aF64.6
aF64.6
aF64.7
aF64.7
aF64.7
aF64.7
aF64.7
aF64.7
aF64.8
aF64.8
aF64.8
aF64.8
aF64.8
aF64.8
aF64.9
aF64.9
aF64.9
aF64.9
aF64.9
aF64.9
aF65.0
aF65.0
aF65.0
aF65.0
aF65.0
aF65.0
aF65.0
aF65.0
aF65.1
aF65.1
aF65.1
aF65.1
aF65.1
aF65.1
aF65.1
aF65.2
aF65.2
aF65.2
aF65.2
aF65.2
aF65.3
aF65.3
aF65.3
aF65.3
aF65.3
aF65.3
aF65.3
aF65.4
aF65.4
aF65.5
aF65.5
aF65.5
aF65.5
aF65.5
aF65.6
aF65.6
aF65.6
aF65.7
aF65.8
aF65.8
aF65.8
aF65.8
aF65.8
aF65.8
aF65.8
aF65.9
aF65.9
aF65.9
aF65.9
aF65.9
aF65.9
aF65.9
aF65.9
aF65.9
aF65.9
aF65.9
aF66.0
aF66.0
aF66.0
aF66.1
aF66.1
aF66.1
aF66.1
aF66.1
aF66.1
aF66.1
aF66.2
aF66.2
aF66.2
aF66.2
aF66.2
aF66.2
aF66.2
aF66.3
aF66.4
aF66.4
aF66.4
aF66.4
aF66.5
aF66.5
aF66.5
aF66.5
aF66.6
aF66.6
aF66.6
aF66.6
aF66.7
aF66.7
aF66.7
aF66.7
aF66.8
aF66.8
aF66.8
aF66.8
aF66.9
aF66.9
aF66.9
aF66.9
aF66.9
aF66.9
aF66.9
aF66.9
aF67.0
aF67.0
aF67.0
aF67.0
aF67.0
aF67.0
aF67.0
aF67.1
aF67.1
aF67.1
aF67.1
aF67.2
aF67.2
aF67.2
aF67.2
aF67.2
aF67.3
aF67.3
aF67.3
aF67.3
aF67.3
aF67.3
aF67.3
aF67.3
aF67.3
aF67.3
aF67.4
aF67.4
aF67.4
aF67.5
aF67.5
aF67.5
aF67.6
aF67.6
aF67.6
aF67.6
aF67.7
aF67.7
aF67.7
aF67.7
aF67.8
aF67.9
aF67.9
aF67.9
aF67.9
aF67.9
aF67.9
aF67.9
aF68.0
aF68.0
aF68.0
aF68.0
aF68.1
aF68.1
aF68.1
aF68.2
aF68.2
aF68.2
aF68.3
aF68.3
aF68.3
aF68.3
aF68.4
aF68.4
aF68.4
aF68.5
aF68.5
aF68.5
aF68.5
aF68.5
aF68.5
aF68.5
aF68.6
aF68.6
aF68.6
aF68.6
aF68.6
aF68.6
aF68.7
aF68.7
aF68.7
aF68.7
aF68.7
aF68.8
aF68.8
aF68.8
aF68.9
aF68.9
aF68.9
aF68.9
aF68.9
aF69.0
aF69.0
aF69.1
aF69.2
aF69.2
aF69.3
aF69.3
aF69.3
aF69.3
aF69.3
aF69.4
aF69.4
aF69.4
aF69.5
aF69.5
aF69.5
aF69.6
aF69.7
aF69.7
aF69.7
aF69.7
aF69.7
aF69.8
aF69.8
aF69.8
aF69.8
aF69.9
aF69.9
aF69.9
aF69.9
aF69.9
aF70.0
aF70.0
aF70.0
aF70.0
aF70.1
aF70.1
aF70.1
aF70.1
aF70.1
aF70.2
aF70.2
aF70.2
aF70.2
aF70.2
aF70.2
aF70.3
aF70.3
aF70.3
aF70.3
aF70.4
aF70.4
aF70.4
aF70.4
aF70.4
aF70.5
aF70.5
aF70.5
aF70.5
aF70.6
aF70.6
aF70.6
aF70.6
aF70.6
aF70.6
aF70.6
aF70.6
aF70.6
aF70.7
aF70.8
aF70.8
aF70.8
aF70.8
aF70.8
aF70.9
aF70.9
aF70.9
aF70.9
aF70.9
aF71.0
aF71.0
aF71.0
aF71.0
aF71.0
aF71.1
aF71.1
aF71.1
aF71.1
aF71.1
aF71.1
aF71.2
aF71.2
aF71.2
aF71.3
aF71.4
aF71.4
aF71.5
aF71.5
aF71.5
aF71.5
aF71.5
aF71.5
aF71.6
aF71.6
aF71.6
aF71.6
aF71.7
aF71.7
aF71.7
aF71.7
aF71.8
aF71.8
aF71.8
aF71.8
aF71.8
aF71.8
aF71.9
aF71.9
aF71.9
aF71.9
aF72.0
aF72.0
aF72.0
aF72.1
aF72.1
aF72.1
aF72.1
aF72.2
aF72.2
aF72.2
aF72.2
aF72.2
aF72.3
aF72.3
aF72.3
aF72.3
aF72.4
aF72.4
aF72.4
aF72.4
aF72.5
aF72.5
aF72.5
aF72.5
aF72.5
aF72.6
aF72.6
aF72.6
aF72.6
aF72.7
aF72.7
aF72.7
aF72.7
aF72.7
aF72.8
aF72.8
aF72.8
aF72.8
aF72.9
aF73.0
aF73.0
aF73.0
aF73.0
aF73.0
aF73.1
aF73.1
aF73.1
aF73.1
aF73.1
aF73.1
aF73.1
aF73.1
aF73.2
aF73.2
aF73.2
aF73.2
aF73.2
aF73.3
aF73.3
aF73.3
aF73.3
aF73.3
aF73.4
aF73.4
aF73.4
aF73.4
aF73.4
aF73.5
aF73.5
aF73.5
aF73.5
aF73.5
aF73.6
aF73.6
aF73.7
aF73.7
aF73.7
aF73.7
aF73.8
aF73.8
aF73.8
aF73.8
aF73.8
aF73.9
aF73.9
aF73.9
aF73.9
aF74.0
aF74.0
aF74.0
aF74.0
aF74.1
aF74.1
aF74.1
aF74.2
aF74.2
aF74.2
aF74.2
aF74.2
aF74.2
aF74.3
aF74.3
aF74.3
aF74.3
aF74.3
aF74.4
aF74.4
aF74.5
aF74.5
aF74.5
aF74.5
aF74.5
aF74.5
aF74.5
aF74.5
aF74.5
aF74.6
aF74.6
aF74.6
aF74.6
aF74.7
aF74.7
aF74.7
aF74.8
aF74.8
aF74.8
aF74.8
aF74.8
aF74.8
aF74.8
aF74.8
aF74.9
aF74.9
aF75.0
aF75.0
aF75.0
aF75.0
aF75.1
aF75.1
aF75.1
aF75.1
aF75.1
aF75.1
aF75.1
aF75.2
aF75.2
aF75.2
aF75.2
aF75.2
aF75.3
aF75.3
aF75.3
aF75.3
aF75.3
aF75.3
aF75.3
aF75.3
aF75.3
aF75.4
aF75.4
aF75.4
aF75.4
aF75.4
aF75.4
aF75.5
aF75.5
aF75.5
aF75.5
aF75.5
aF75.5
aF75.5
aF75.5
aF75.5
aF75.5
aF75.6
aF75.6
aF75.6
aF75.7
aF75.7
aF75.7
aF75.7
aF75.7
aF75.8
aF75.8
aF75.8
aF75.8
aF75.9
aF75.9
aF75.9
aF75.9
aF76.0
aF76.0
aF76.0
aF76.0
aF76.0
aF76.0
aF76.1
aF76.1
aF76.1
aF76.1
aF76.2
aF76.2
aF76.3
aF76.3
aF76.3
aF76.4
aF76.4
aF76.4
aF76.4
aF76.4
aF76.4
aF76.4
aF76.5
aF76.6
aF76.6
aF76.6
aF76.6
aF76.6
aF76.6
aF76.7
aF76.7
aF76.7
aF76.7
aF76.7
aF76.7
aF76.8
aF76.8
aF76.8
aF76.9
aF76.9
aF76.9
aF77.0
aF77.0
aF77.0
aF77.0
aF77.1
aF77.1
aF77.1
aF77.2
aF77.2
aF77.3
aF77.3
aF77.4
aF77.4
aF77.4
aF77.4
aF77.4
aF77.4
aF77.4
aF77.5
aF77.5
aF77.5
aF77.5
aF77.6
aF77.6
aF77.6
aF77.6
aF77.7
aF77.7
aF77.7
aF77.8
aF77.9
aF77.9
aF77.9
aF77.9
aF77.9
aF77.9
aF78.0
aF78.0
aF78.0
aF78.1
aF78.1
aF78.1
aF78.1
aF78.1
aF78.1
aF78.2
aF78.2
aF78.3
aF78.3
aF78.3
aF78.4
aF78.4
aF78.4
aF78.4
aF78.4
aF78.5
aF78.5
aF78.5
aF78.6
aF78.6
aF78.6
aF78.6
aF78.6
aF78.6
aF78.6
aF78.7
aF78.7
aF78.7
aF78.7
aF78.7
aF78.8
aF78.8
aF78.8
aF78.8
aF78.8
aF78.8
aF78.9
aF78.9
aF78.9
aF79.0
aF79.0
aF79.0
aF79.0
aF79.0
aF79.0
aF79.0
aF79.1
aF79.1
aF79.1
aF79.1
aF79.1
aF79.2
aF79.2
aF79.2
aF79.2
aF79.2
aF79.2
aF79.2
aF79.3
aF79.3
aF79.3
aF79.3
aF79.4
aF79.4
aF79.5
aF79.5
aF79.5
aF79.6
aF79.6
aF79.6
aF79.6
aF79.6
aF79.6
aF79.6
aF79.7
aF79.7
aF79.8
aF79.8
aF79.8
aF79.9
aF79.9
aF79.9
aF80.0
aF80.0
aF80.1
aF80.1
aF80.1
aF80.1
aF80.1
aF80.1
aF80.1
aF80.2
aF80.2
aF80.2
aF80.2
aF80.2
aF80.3
aF80.3
aF80.3
aF80.3
aF80.4
aF80.4
aF80.4
aF80.5
aF80.5
aF80.6
aF80.6
aF80.6
aF80.7
aF80.7
aF80.8
aF80.8
aF80.8
aF80.8
aF80.9
aF81.0
aF81.0
aF81.0
aF81.0
aF81.0
aF81.1
aF81.2
aF81.2
aF81.2
aF81.2
aF81.2
aF81.3
aF81.3
aF81.3
aF81.3
aF81.3
aF81.3
aF81.4
aF81.4
aF81.4
aF81.5
aF81.5
aF81.5
aF81.5
aF81.5
aF81.5
aF81.6
aF81.6
aF81.6
aF81.7
aF81.7
aF81.7
aF81.7
aF81.7
aF81.8
aF81.8
aF81.8
aF81.8
aF81.8
aF81.9
aF81.9
aF81.9
aF81.9
aF82.0
aF82.0
aF82.0
aF82.0
aF82.1
aF82.1
aF82.1
aF82.1
aF82.1
aF82.1
aF82.1
aF82.2
aF82.3
aF82.3
aF82.3
aF82.3
aF82.3
aF82.4
aF82.4
aF82.4
aF82.5
aF82.5
aF82.5
aF82.5
aF82.5
aF82.5
aF82.5
aF82.6
aF82.6
aF82.6
aF82.6
aF82.7
aF82.7
aF82.7
aF82.7
aF82.7
aF82.7
aF82.7
aF82.7
aF82.7
aF82.7
aF82.7
aF82.8
aF82.8
aF82.8
aF82.8
aF82.8
aF82.9
aF82.9
aF82.9
aF82.9
aF82.9
aF82.9
aF82.9
aF83.0
aF83.1
aF83.1
aF83.1
aF83.1
aF83.1
aF83.2
aF83.2
aF83.2
aF83.2
aF83.3
aF83.3
aF83.3
aF83.3
aF83.4
aF83.4
aF83.4
aF83.4
aF83.4
aF83.5
aF83.5
aF83.5
aF83.5
aF83.5
aF83.5
aF83.6
aF83.6
aF83.6
aF83.6
aF83.6
aF83.6
aF83.6
aF83.6
aF83.7
aF83.7
aF83.8
aF83.8
aF83.9
aF83.9
aF83.9
aF83.9
aF84.0
aF84.0
aF84.0
aF84.1
aF84.1
aF84.1
aF84.1
aF84.1
aF84.1
aF84.1
aF84.2
aF84.3
aF84.3
aF84.3
aF84.3
aF84.3
aF84.3
aF84.3
aF84.4
aF84.4
aF84.4
aF84.4
aF84.4
aF84.5
aF84.5
aF84.5
aF84.5
aF84.5
aF84.6
aF84.6
aF84.6
aF84.7
aF84.7
aF84.7
aF84.7
aF84.7
aF84.7
aF84.7
aF84.7
aF84.8
aF84.8
aF84.8
aF84.8
aF84.8
aF84.9
aF84.9
aF84.9
aF85.0
aF85.0
aF85.0
aF85.0
aF85.0
aF85.0
aF85.1
aF85.1
aF85.1
aF85.1
aF85.1
aF85.1
aF85.2
aF85.2
aF85.3
aF85.3
aF85.3
aF85.3
aF85.3
aF85.3
aF85.4
aF85.4
aF85.4
aF85.4
aF85.4
aF85.4
aF85.4
aF85.4
aF85.4
aF85.5
aF85.5
aF85.5
aF85.5
aF85.5
aF85.6
aF85.7
aF85.7
aF85.7
aF85.7
aF85.7
aF85.8
aF85.8
aF85.8
aF85.8
aF85.8
aF85.8
aF85.8
aF85.9
aF85.9
aF85.9
aF85.9
aF85.9
aF86.0
aF86.0
aF86.0
aF86.0
aF86.0
aF86.1
aF86.1
aF86.1
aF86.1
aF86.1
aF86.2
aF86.2
aF86.2
aF86.2
aF86.2
aF86.2
aF86.3
aF86.4
aF86.4
aF86.4
aF86.4
aF86.5
aF86.5
aF86.5
aF86.5
aF86.6
aF86.6
aF86.6
aF86.6
aF86.7
aF86.7
aF86.7
aF86.7
aF86.8
aF86.8
aF86.8
aF86.8
aF86.8
aF86.9
aF86.9
aF86.9
aF86.9
aF86.9
aF86.9
aF87.0
aF87.0
aF87.1
aF87.2
aF87.2
aF87.2
aF87.3
aF87.3
aF87.3
aF87.3
aF87.3
aF87.4
aF87.4
aF87.4
aF87.5
aF87.5
aF87.5
aF87.5
aF87.6
aF87.6
aF87.6
aF87.6
aF87.6
aF87.6
aF87.7
aF87.7
aF87.7
aF87.7
aF87.7
aF87.7
aF87.7
aF87.7
aF87.7
aF87.8
aF87.9
aF87.9
aF88.0
aF88.0
aF88.0
aF88.0
aF88.0
aF88.0
aF88.1
aF88.1
aF88.1
aF88.2
aF88.2
aF88.2
aF88.2
aF88.3
aF88.3
aF88.3
aF88.3
aF88.3
aF88.3
aF88.4
aF88.4
aF88.4
aF88.4
aF88.4
aF88.4
aF88.4
aF88.4
aF88.4
aF88.4
aF88.5
aF88.5
aF88.6
aF88.6
aF88.7
aF88.7
aF88.7
aF88.7
aF88.7
aF88.7
aF88.7
aF88.8
aF88.8
aF88.8
aF88.8
aF88.8
aF88.8
aF88.8
aF88.9
aF88.9
aF88.9
aF88.9
aF88.9
aF89.0
aF89.0
aF89.0
aF89.0
aF89.0
aF89.0
aF89.0
aF89.1
aF89.1
aF89.1
aF89.1
aF89.2
aF89.2
aF89.2
aF89.2
aF89.2
aF89.2
aF89.2
aF89.3
aF89.3
aF89.3
aF89.3
aF89.3
aF89.3
aF89.4
aF89.4
aF89.4
aF89.4
aF89.5
aF89.5
aF89.5
aF89.5
aF89.5
aF89.6
aF89.6
aF89.6
aF89.7
aF89.7
aF89.7
aF89.7
aF89.7
aF89.7
aF89.7
aF89.8
aF89.8
aF89.8
aF89.8
aF89.8
aF89.8
aF89.8
aF89.8
aF89.9
aF89.9
aF89.9
aF89.9
aF89.9
aF89.9
aF89.9
aF90.0
aF90.0
aF90.0
aF90.1
aF90.1
aF90.1
aF90.1
aF90.2
aF90.2
aF90.2
aF90.3
aF90.3
aF90.3
aF90.3
aF90.4
aF90.4
aF90.4
aF90.4
aF90.4
aF90.5
aF90.5
aF90.6
aF90.6
aF90.6
aF90.6
aF90.7
aF90.7
aF90.7
aF90.7
aF90.8
aF90.8
aF90.8
aF90.8
aF90.8
aF90.8
aF90.9
aF90.9
aF90.9
aF91.0
aF91.0
aF91.0
aF91.1
aF91.1
aF91.2
aF91.2
aF91.2
aF91.2
aF91.2
aF91.2
aF91.2
aF91.2
aF91.2
aF91.3
aF91.3
aF91.3
aF91.4
aF91.4
aF91.4
aF91.4
aF91.5
aF91.5
aF91.5
aF91.5
aF91.5
aF91.6
aF91.6
aF91.6
aF91.6
aF91.7
aF91.7
aF91.7
aF91.7
aF91.8
aF91.8
aF91.8
aF91.8
aF91.9
aF91.9
aF91.9
aF91.9
aF92.0
aF92.0
aF92.0
aF92.0
aF92.0
aF92.1
aF92.1
aF92.2
aF92.2
aF92.2
aF92.2
aF92.4
aF92.4
aF92.4
aF92.5
aF92.5
aF92.5
aF92.5
aF92.5
aF92.6
aF92.6
aF92.6
aF92.6
aF92.6
aF92.6
aF92.6
aF92.6
aF92.6
aF92.7
aF92.7
aF92.7
aF92.7
aF92.7
aF92.7
aF92.7
aF92.7
aF92.8
aF92.8
aF92.8
aF92.8
aF92.8
aF92.8
aF92.9
aF92.9
aF92.9
aF92.9
aF92.9
aF92.9
aF93.0
aF93.0
aF93.0
aF93.0
aF93.0
aF93.1
aF93.1
aF93.1
aF93.1
aF93.1
aF93.2
aF93.2
aF93.2
aF93.3
aF93.3
aF93.3
aF93.3
aF93.3
aF93.4
aF93.4
aF93.4
aF93.5
aF93.6
aF93.6
aF93.7
aF93.7
aF93.7
aF93.7
aF93.7
aF93.8
aF93.8
aF93.8
aF93.9
aF94.0
aF94.0
aF94.0
aF94.0
aF94.0
aF94.0
aF94.0
aF94.1
aF94.2
aF94.2
aF94.2
aF94.2
aF94.2
aF94.3
aF94.3
aF94.4
aF94.4
aF94.4
aF94.4
aF94.4
aF94.5
aF94.5
aF94.5
aF94.6
aF94.6
aF94.7
aF94.7
aF94.7
aF94.7
aF94.7
aF94.8
aF94.8
aF94.8
aF94.9
aF94.9
aF94.9
aF95.0
aF95.0
aF95.0
aF95.0
aF95.0
aF95.1
aF95.1
aF95.1
aF95.1
aF95.2
aF95.2
aF95.2
aF95.3
aF95.3
aF95.4
aF95.4
aF95.4
aF95.5
aF95.5
aF95.5
aF95.6
aF95.6
aF95.7
aF95.7
aF95.7
aF95.7
aF95.7
aF95.7
aF95.8
aF95.9
aF95.9
aF95.9
aF95.9
aF95.9
aF95.9
aF95.9
aF96.0
aF96.1
aF96.2
aF96.2
aF96.2
aF96.2
aF96.3
aF96.4
aF96.4
aF96.4
aF96.4
aF96.4
aF96.4
aF96.4
aF96.5
aF96.5
aF96.5
aF96.5
aF96.5
aF96.6
aF96.7
aF96.7
aF96.7
aF96.8
aF96.8
aF96.8
aF96.8
aF96.8
aF96.9
aF96.9
aF96.9
aF96.9
aF96.9
aF97.0
aF97.0
aF97.0
aF97.1
aF97.1
aF97.1
aF97.1
aF97.1
aF97.1
aF97.1
aF97.2
aF97.2
aF97.2
aF97.2
aF97.3
aF97.3
aF97.3
aF97.3
aF97.4
aF97.4
aF97.4
aF97.4
aF97.5
aF97.5
aF97.6
aF97.6
aF97.6
aF97.6
aF97.7
aF97.7
aF97.7
aF97.7
aF97.8
aF97.8
aF97.8
aF97.8
aF97.8
aF97.8
aF97.8
aF97.9
aF98.0
aF98.0
aF98.0
aF98.1
aF98.2
aF98.2
aF98.3
aF98.3
aF98.3
aF98.3
aF98.4
aF98.4
aF98.5
aF98.5
aF98.5
aF98.5
aF98.5
aF98.5
aF98.6
aF98.6
aF98.7
aF98.7
aF98.8
aF98.8
aF98.8
aF98.8
aF98.8
aF98.9
aF98.9
aF98.9
aF98.9
aF98.9
aF99.0
aF99.0
aF99.1
aF99.1
aF99.1
aF99.1
aF99.2
aF99.2
aF99.3
aF99.3
aF99.3
aF99.3
aF99.3
aF99.4
aF99.4
aF99.5
aF99.5
aF99.5
aF99.6
aF99.6
aF99.6
aF99.6
aF99.7
aF99.7
aF99.7
aF99.7
aF99.7
aF99.7
aF99.7
aF99.7
aF99.8
aF99.8
aF99.8
aF99.8
aF99.9
aF100.0
aF100.0
aF100.0
aF100.0
aF100.0
aF100.1
aF100.1
aF100.1
aF100.1
aF100.1
aF100.2
aF100.2
aF100.2
aF100.2
aF100.3
aF100.3
aF100.4
aF100.4
aF100.4
aF100.5
aF100.5
aF100.5
aF100.6
aF100.6
aF100.6
aF100.7
aF100.7
aF100.7
aF100.8
aF100.8
aF100.8
aF100.8
aF100.8
aF101.0
aF101.0
aF101.1
aF101.1
aF101.1
aF101.2
aF101.2
aF101.2
aF101.3
aF101.3
aF101.3
aF101.4
aF101.4
aF101.4
aF101.4
aF101.4
aF101.5
aF101.5
aF101.5
aF101.6
aF101.6
aF101.6
aF101.6
aF101.6
aF101.7
aF101.7
aF101.7
aF101.7
aF101.7
aF101.7
aF101.8
aF101.8
aF101.8
aF101.9
aF101.9
aF101.9
aF101.9
aF102.0
aF102.0
aF102.0
aF102.0
aF102.0
aF102.0
aF102.1
aF102.1
aF102.1
aF102.2
aF102.2
aF102.2
aF102.2
aF102.2
aF102.3
aF102.3
aF102.3
aF102.3
aF102.3
aF102.3
aF102.3
aF102.3
aF102.4
aF102.4
aF102.4
aF102.5
aF102.5
aF102.5
aF102.5
aF102.5
aF102.6
aF102.6
aF102.6
aF102.6
aF102.7
aF102.8
aF102.9
aF102.9
aF102.9
aF103.0
aF103.0
aF103.0
aF103.0
aF103.0
aF103.0
aF103.0
aF103.0
aF103.1
aF103.1
aF103.1
aF103.1
aF103.1
aF103.1
aF103.2
aF103.3
aF103.3
aF103.4
aF103.4
aF103.4
aF103.4
aF103.5
aF103.5
aF103.5
aF103.5
aF103.6
aF103.6
aF103.6
aF103.6
aF103.7
aF103.7
aF103.7
aF103.7
aF103.8
aF103.8
aF103.8
aF103.8
aF103.8
aF103.9
aF103.9
aF103.9
aF103.9
aF104.0
aF104.0
aF104.0
aF104.0
aF104.1
aF104.1
aF104.3
aF104.3
aF104.3
aF104.4
aF104.4
aF104.4
aF104.5
aF104.5
aF104.5
aF104.6
aF104.6
aF104.7
aF104.7
aF104.7
aF104.7
aF104.7
aF104.7
aF104.8
aF104.8
aF104.9
aF104.9
aF104.9
aF104.9
aF104.9
aF104.9
aF105.0
aF105.0
aF105.0
aF105.0
aF105.1
aF105.1
aF105.2
aF105.2
aF105.2
aF105.2
aF105.2
aF105.3
aF105.3
aF105.3
aF105.3
aF105.3
aF105.4
aF105.4
aF105.4
aF105.4
aF105.4
aF105.5
aF105.5
aF105.5
aF105.5
aF105.5
aF105.5
aF105.5
aF105.5
aF105.6
aF105.7
aF105.7
aF105.7
aF105.7
aF105.8
aF105.8
aF105.8
aF105.9
aF105.9
aF105.9
aF105.9
aF105.9
aF106.0
aF106.0
aF106.0
aF106.1
aF106.1
aF106.1
aF106.2
aF106.2
aF106.2
aF106.2
aF106.3
aF106.3
aF106.3
aF106.4
aF106.4
aF106.4
aF106.5
aF106.5
aF106.5
aF106.5
aF106.6
aF106.6
aF106.6
aF106.7
aF106.7
aF106.7
aF106.7
aF106.7
aF106.8
aF106.8
aF106.8
aF106.9
aF106.9
aF106.9
aF106.9
aF106.9
aF106.9
aF107.0
aF107.1
aF107.1
aF107.1
aF107.1
aF107.2
aF107.2
aF107.2
aF107.2
aF107.2
aF107.3
aF107.3
aF107.4
aF107.4
aF107.4
aF107.4
aF107.4
aF107.4
aF107.5
aF107.5
aF107.5
aF107.5
aF107.6
aF107.7
aF107.7
aF107.7
aF107.7
aF107.7
aF107.7
aF107.7
aF107.7
aF107.7
aF107.8
aF107.8
aF107.9
aF107.9
aF107.9
aF107.9
aF107.9
aF107.9
aF108.0
aF108.0
aF108.0
aF108.0
aF108.1
aF108.1
aF108.1
aF108.1
aF108.1
aF108.2
aF108.2
aF108.3
aF108.3
aF108.3
aF108.3
aF108.3
aF108.3
aF108.4
aF108.4
aF108.4
aF108.4
aF108.5
aF108.5
aF108.5
aF108.5
aF108.5
aF108.6
aF108.6
aF108.6
aF108.6
aF108.6
aF108.6
aF108.6
aF108.6
aF108.7
aF108.7
aF108.7
aF108.7
aF108.7
aF108.7
aF108.7
aF108.8
aF108.8
aF108.8
aF108.8
aF108.8
aF108.9
aF108.9
aF108.9
aF108.9
aF109.0
aF109.0
aF109.0
aF109.1
aF109.1
aF109.1
aF109.2
aF109.2
aF109.2
aF109.2
aF109.3
aF109.4
aF109.4
aF109.5
aF109.5
aF109.6
aF109.6
aF109.6
aF109.6
aF109.6
aF109.6
aF109.6
aF109.6
aF109.7
aF109.7
aF109.7
aF109.7
aF109.8
aF109.8
aF109.8
aF109.8
aF109.8
aF109.8
aF109.9
aF109.9
aF109.9
aF109.9
aF110.0
aF110.1
aF110.1
aF110.1
aF110.2
aF110.2
aF110.2
aF110.2
aF110.2
aF110.2
aF110.2
aF110.2
aF110.3
aF110.4
aF110.4
aF110.5
aF110.5
aF110.5
aF110.5
aF110.5
aF110.5
aF110.6
aF110.6
aF110.7
aF110.7
aF110.7
aF110.7
aF110.8
aF110.8
aF110.8
aF110.8
aF110.8
aF110.8
aF110.9
aF110.9
aF110.9
aF110.9
aF111.0
aF111.0
aF111.1
aF111.1
aF111.1
aF111.1
aF111.2
aF111.2
aF111.2
aF111.3
aF111.3
aF111.3
aF111.3
aF111.3
aF111.3
aF111.3
aF111.4
aF111.5
aF111.6
aF111.7
aF111.7
aF111.7
aF111.7
aF111.8
aF111.8
aF111.8
aF111.8
aF111.8
aF111.9
aF111.9
aF112.0
aF112.0
aF112.0
aF112.0
aF112.0
aF112.0
aF112.0
aF112.0
aF112.0
aF112.0
aF112.1
aF112.1
aF112.1
aF112.1
aF112.2
aF112.2
aF112.2
aF112.2
aF112.3
aF112.3
aF112.3
aF112.3
aF112.4
aF112.4
aF112.5
aF112.5
aF112.5
aF112.5
aF112.5
aF112.5
aF112.5
aF112.6
aF112.6
aF112.7
aF112.7
aF112.7
aF112.7
aF112.8
aF112.8
aF112.8
aF112.8
aF112.8
aF112.8
aF112.9
aF112.9
aF112.9
aF112.9
aF113.0
aF113.0
aF113.0
aF113.0
aF113.1
aF113.2
aF113.2
aF113.2
aF113.2
aF113.3
aF113.3
aF113.4
aF113.4
aF113.5
aF113.5
aF113.5
aF113.5
aF113.5
aF113.7
aF113.7
aF113.7
aF113.7
aF113.7
aF113.7
aF113.7
aF113.7
aF113.8
aF113.8
aF113.8
aF113.8
aF113.8
aF113.8
aF113.9
aF113.9
aF113.9
aF114.0
aF114.1
aF114.1
aF114.1
aF114.1
aF114.1
aF114.2
aF114.2
aF114.2
aF114.2
aF114.2
aF114.2
aF114.3
aF114.3
aF114.3
aF114.3
aF114.3
aF114.4
aF114.4
aF114.4
aF114.4
aF114.4
aF114.5
aF114.5
aF114.5
aF114.5
aF114.5
aF114.5
aF114.6
aF114.7
aF114.7
aF114.7
aF114.7
aF114.8
aF114.8
aF114.9
aF114.9
aF114.9
aF114.9
aF115.0
aF115.0
aF115.0
aF115.1
aF115.1
aF115.1
aF115.1
aF115.1
aF115.2
aF115.2
aF115.2
aF115.2
aF115.3
aF115.3
aF115.3
aF115.4
aF115.4
aF115.4
aF115.4
aF115.5
aF115.6
aF115.6
aF115.6
aF115.7
aF115.8
aF115.9
aF115.9
aF116.0
aF116.0
aF116.0
aF116.1
aF116.1
aF116.1
aF116.1
aF116.1
aF116.2
aF116.2
aF116.3
aF116.3
aF116.3
aF116.3
aF116.3
aF116.3
aF116.4
aF116.4
aF116.5
aF116.5
aF116.5
aF116.5
aF116.5
aF116.5
aF116.7
aF116.7
aF116.7
aF116.7
aF116.7
aF116.7
aF116.7
aF116.7
aF116.8
aF116.8
aF116.8
aF116.9
aF117.0
aF117.0
aF117.1
aF117.1
aF117.1
aF117.1
aF117.1
aF117.1
aF117.1
aF117.2
aF117.2
aF117.2
aF117.3
aF117.3
aF117.3
aF117.4
aF117.5
aF117.5
aF117.5
aF117.6
aF117.6
aF117.6
aF117.6
aF117.6
aF117.6
aF117.7
aF117.7
aF117.7
aF117.7
aF117.8
aF117.8
aF117.8
aF117.9
aF117.9
aF117.9
aF117.9
aF118.1
aF118.1
aF118.1
aF118.1
aF118.2
aF118.2
aF118.2
aF118.2
aF118.3
aF118.3
aF118.3
aF118.3
aF118.3
aF118.3
aF118.3
aF118.3
aF118.3
aF118.3
aF118.4
aF118.4
aF118.4
aF118.5
aF118.5
aF118.6
aF118.6
aF118.6
aF118.6
aF118.6
aF118.6
aF118.7
aF118.7
aF118.7
aF118.7
aF118.7
aF118.7
aF118.8
aF118.9
aF118.9
aF118.9
aF118.9
aF118.9
aF118.9
aF118.9
aF119.0
aF119.0
aF119.1
aF119.1
aF119.1
aF119.1
aF119.2
aF119.2
aF119.2
aF119.2
aF119.3
aF119.3
aF119.3
aF119.4
aF119.5
aF119.5
aF119.5
aF119.5
aF119.5
aF119.5
aF119.6
aF119.6
aF119.6
aF119.6
aF119.7
aF119.7
aF119.7
aF119.7
aF119.7
aF119.7
aF119.7
aF119.8
aF119.8
aF119.9
aF119.9
aF119.9
aF119.9
aF119.9
aF119.9
aF119.9
aF119.9
aF120.0
aF120.0
aF120.0
aF120.0
aF120.1
aF120.1
aF120.1
aF120.1
aF120.1
aF120.1
aF120.1
aF120.1
aF120.2
aF120.2
aF120.2
aF120.2
aF120.2
aF120.3
aF120.3
aF120.3
aF120.4
aF120.4
aF120.4
aF120.4
aF120.5
aF120.5
aF120.5
aF120.6
aF120.7
aF120.7
aF120.7
aF120.8
aF120.8
aF120.9
aF120.9
aF120.9
aF121.0
aF121.0
aF121.1
aF121.1
aF121.1
aF121.1
aF121.2
aF121.2
aF121.2
aF121.2
aF121.3
aF121.3
aF121.3
aF121.4
aF121.4
aF121.4
aF121.4
aF121.5
aF121.5
aF121.6
aF121.6
aF121.6
aF121.7
aF121.7
aF121.7
aF121.7
aF121.7
aF121.7
aF121.8
aF121.8
aF121.8
aF121.8
aF121.8
aF121.8
aF121.9
aF121.9
aF121.9
aF121.9
aF121.9
aF121.9
aF122.0
aF122.1
aF122.1
aF122.2
aF122.2
aF122.2
aF122.3
aF122.3
aF122.3
aF122.3
aF122.3
aF122.3
aF122.3
aF122.3
aF122.4
aF122.4
aF122.4
aF122.4
aF122.5
aF122.5
aF122.5
aF122.5
aF122.6
aF122.6
aF122.6
aF122.6
aF122.7
aF122.7
aF122.7
aF122.7
aF122.8
aF122.8
aF122.8
aF122.8
aF122.9
aF122.9
aF122.9
aF122.9
aF122.9
aF122.9
aF122.9
aF123.0
aF123.0
aF123.1
aF123.1
aF123.2
aF123.2
aF123.3
aF123.4
aF123.4
aF123.5
aF123.5
aF123.5
aF123.6
aF123.6
aF123.7
aF123.7
aF123.7
aF123.7
aF123.8
aF123.8
aF123.8
aF123.8
aF123.8
aF123.8
aF124.0
aF124.0
aF124.0
aF124.0
aF124.1
aF124.1
aF124.1
aF124.2
aF124.2
aF124.2
aF124.3
aF124.3
aF124.3
aF124.3
aF124.3
aF124.4
aF124.4
aF124.5
aF124.5
aF124.6
aF124.6
aF124.6
aF124.6
aF124.7
aF124.7
aF124.7
aF124.7
aF124.7
aF124.8
aF124.9
aF124.9
aF124.9
aF125.0
aF125.0
aF125.0
aF125.0
aF125.0
aF125.1
aF125.1
aF125.1
aF125.2
aF125.2
aF125.2
aF125.2
aF125.3
aF125.4
aF125.5
aF125.5
aF125.5
aF125.6
aF125.6
aF125.6
aF125.7
aF125.7
aF125.7
aF125.7
aF125.7
aF125.8
aF125.8
aF125.9
aF125.9
aF125.9
aF126.0
aF126.0
aF126.0
aF126.0
aF126.2
aF126.2
aF126.2
aF126.2
aF126.3
aF126.3
aF126.3
aF126.3
aF126.3
aF126.3
aF126.4
aF126.4
aF126.4
aF126.5
aF126.5
aF126.6
aF126.6
aF126.6
aF126.7
aF126.8
aF126.8
aF126.8
aF126.8
aF126.9
aF126.9
aF126.9
aF127.0
aF127.0
aF127.0
aF127.0
aF127.1
aF127.1
aF127.1
aF127.1
aF127.1
aF127.1
aF127.2
aF127.2
aF127.2
aF127.3
aF127.3
aF127.3
aF127.4
aF127.4
aF127.4
aF127.4
aF127.4
aF127.5
aF127.5
aF127.5
aF127.6
aF127.6
aF127.6
aF127.6
aF127.7
aF127.7
aF127.8
aF127.9
aF127.9
aF127.9
aF127.9
aF127.9
aF127.9
aF127.9
aF128.0
aF128.0
aF128.0
aF128.0
aF128.0
aF128.0
aF128.0
aF128.0
aF128.0
aF128.1
aF128.1
aF128.2
aF128.2
aF128.3
aF128.3
aF128.3
aF128.4
aF128.4
aF128.4
aF128.4
aF128.5
aF128.5
aF128.5
aF128.5
aF128.6
aF128.6
aF128.6
aF128.6
aF128.6
aF128.6
aF128.6
aF128.6
aF128.6
aF128.7
aF128.7
aF128.7
aF128.7
aF128.7
aF128.8
aF128.8
aF128.8
aF128.8
aF128.9
aF128.9
aF129.0
aF129.0
aF129.1
aF129.1
aF129.1
aF129.2
aF129.3
aF129.3
aF129.3
aF129.3
aF129.3
aF129.4
aF129.5
aF129.5
aF129.5
aF129.6
aF129.6
aF129.7
aF129.7
aF129.7
aF129.8
aF129.9
aF129.9
aF129.9
aF129.9
aF130.0
aF130.1
aF130.2
aF130.2
aF130.2
aF130.2
aF130.2
aF130.2
aF130.3
aF130.3
aF130.3
aF130.3
aF130.4
aF130.4
aF130.4
aF130.4
aF130.5
aF130.5
aF130.5
aF130.5
aF130.5
aF130.6
aF130.6
aF130.6
aF130.6
aF130.6
aF130.7
aF130.7
aF130.7
aF130.7
aF130.7
aF130.7
aF130.7
aF130.8
aF130.9
aF130.9
aF130.9
aF130.9
aF131.0
aF131.1
aF131.1
aF131.1
aF131.1
aF131.1
aF131.2
aF131.2
aF131.2
aF131.3
aF131.3
aF131.3
aF131.4
aF131.5
aF131.5
aF131.5
aF131.5
aF131.6
aF131.6
aF131.6
aF131.6
aF131.7
aF131.7
aF131.7
aF131.7
aF131.7
aF131.7
aF131.8
aF131.8
aF131.8
aF131.9
aF131.9
aF131.9
aF132.0
aF132.0
aF132.0
aF132.1
aF132.1
aF132.1
aF132.1
aF132.1
aF132.1
aF132.2
aF132.2
aF132.2
aF132.3
aF132.3
aF132.3
aF132.3
aF132.4
aF132.4
aF132.4
aF132.4
aF132.4
aF132.5
aF132.5
aF132.5
aF132.6
aF132.6
aF132.6
aF132.6
aF132.7
aF132.7
aF132.7
aF132.7
aF132.8
aF132.8
aF132.8
aF132.8
aF132.9
aF132.9
aF133.0
aF133.0
aF133.0
aF133.0
aF133.1
aF133.2
aF133.2
aF133.2
aF133.3
aF133.3
aF133.3
aF133.3
aF133.4
aF133.4
aF133.5
aF133.5
aF133.5
aF133.5
aF133.6
aF133.6
aF133.6
aF133.8
aF133.8
aF133.8
aF133.9
aF134.0
aF134.0
aF134.1
aF134.1
aF134.1
aF134.1
aF134.2
aF134.2
aF134.3
aF134.3
aF134.3
aF134.3
aF134.3
aF134.3
aF134.4
aF134.4
aF134.5
aF134.5
aF134.5
aF134.5
aF134.5
aF134.6
aF134.6
aF134.7
aF134.7
aF134.7
aF134.8
aF134.9
aF134.9
aF135.0
aF135.0
aF135.0
aF135.0
aF135.1
aF135.1
aF135.1
aF135.2
aF135.2
aF135.3
aF135.3
aF135.4
aF135.5
aF135.5
aF135.5
aF135.5
aF135.5
aF135.5
aF135.5
aF135.5
aF135.6
aF135.7
aF135.7
aF135.8
aF135.8
aF135.8
aF135.8
aF135.9
aF135.9
aF135.9
aF135.9
aF136.0
aF136.0
aF136.1
aF136.1
aF136.2
aF136.2
aF136.2
aF136.3
aF136.3
aF136.3
aF136.4
aF136.5
aF136.5
aF136.5
aF136.6
aF136.7
aF136.7
aF136.7
aF136.8
aF136.8
aF136.8
aF136.8
aF136.9
aF136.9
aF136.9
aF136.9
aF137.0
aF137.0
aF137.0
aF137.0
aF137.0
aF137.1
aF137.1
aF137.1
aF137.1
aF137.1
aF137.1
aF137.2
aF137.2
aF137.3
aF137.3
aF137.3
aF137.3
aF137.3
aF137.3
aF137.3
aF137.4
aF137.4
aF137.5
aF137.5
aF137.5
aF137.5
aF137.6
aF137.7
aF137.8
aF137.8
aF137.8
aF137.9
aF137.9
aF137.9
aF138.1
aF138.1
aF138.1
aF138.1
aF138.2
aF138.2
aF138.2
aF138.2
aF138.3
aF138.3
aF138.3
aF138.3
aF138.4
aF138.4
aF138.5
aF138.5
aF138.5
aF138.6
aF138.6
aF138.7
aF138.7
aF138.7
aF138.7
aF138.7
aF138.8
aF138.8
aF138.8
aF138.8
aF139.0
aF139.0
aF139.0
aF139.0
aF139.1
aF139.1
aF139.1
aF139.1
aF139.1
aF139.1
aF139.1
aF139.2
aF139.2
aF139.2
aF139.3
aF139.3
aF139.3
aF139.3
aF139.3
aF139.4
aF139.4
aF139.4
aF139.4
aF139.4
aF139.5
aF139.5
aF139.6
aF139.7
aF139.7
aF139.7
aF139.8
aF139.8
aF139.8
aF139.9
aF139.9
aF139.9
aF139.9
aF140.1
aF140.1
aF140.1
aF140.1
aF140.2
aF140.3
aF140.3
aF140.3
aF140.3
aF140.3
aF140.4
aF140.4
aF140.4
aF140.4
aF140.4
aF140.5
aF140.5
aF140.6
aF140.6
aF140.6
aF140.6
aF140.7
aF140.7
aF140.7
aF140.7
aF140.7
aF140.8
aF140.8
aF140.8
aF140.9
aF140.9
aF140.9
aF140.9
aF140.9
aF140.9
aF140.9
aF141.0
aF141.0
aF141.0
aF141.0
aF141.1
aF141.1
aF141.1
aF141.1
aF141.4
aF141.5
aF141.5
aF141.6
aF141.6
aF141.6
aF141.6
aF141.6
aF141.7
aF141.7
aF141.8
aF141.8
aF141.9
aF141.9
aF141.9
aF141.9
aF141.9
aF142.0
aF142.0
aF142.0
aF142.0
aF142.1
aF142.1
aF142.1
aF142.3
aF142.3
aF142.4
aF142.4
aF142.4
aF142.5
aF142.5
aF142.5
aF142.5
aF142.6
aF142.6
aF142.7
aF142.7
aF142.7
aF142.8
aF142.8
aF142.8
aF142.9
aF142.9
aF142.9
aF142.9
aF143.0
aF143.0
aF143.1
aF143.1
aF143.1
aF143.1
aF143.1
aF143.2
aF143.2
aF143.3
aF143.3
aF143.4
aF143.5
aF143.5
aF143.5
aF143.5
aF143.5
aF143.5
aF143.6
aF143.7
aF143.8
aF143.8
aF143.9
aF143.9
aF144.1
aF144.1
aF144.1
aF144.2
aF144.3
aF144.4
aF144.4
aF144.4
aF144.4
aF144.5
aF144.5
aF144.5
aF144.6
aF144.6
aF144.6
aF144.6
aF144.7
aF144.7
aF144.7
aF144.8
aF144.9
aF145.0
aF145.0
aF145.2
aF145.2
aF145.2
aF145.2
aF145.2
aF145.2
aF145.2
aF145.2
aF145.3
aF145.3
aF145.3
aF145.3
aF145.4
aF145.4
aF145.5
aF145.5
aF145.5
aF145.5
aF145.5
aF145.5
aF145.6
aF145.6
aF145.6
aF145.6
aF145.6
aF145.7
aF145.7
aF145.8
aF145.8
aF145.8
aF145.8
aF145.8
aF145.8
aF145.9
aF145.9
aF145.9
aF146.0
aF146.1
aF146.1
aF146.1
aF146.1
aF146.1
aF146.3
aF146.3
aF146.3
aF146.3
aF146.3
aF146.4
aF146.4
aF146.4
aF146.5
aF146.5
aF146.6
aF146.6
aF146.6
aF146.6
aF146.8
aF146.8
aF146.8
aF146.8
aF146.9
aF146.9
aF146.9
aF147.0
aF147.0
aF147.0
aF147.1
aF147.1
aF147.1
aF147.1
aF147.2
aF147.2
aF147.2
aF147.2
aF147.3
aF147.3
aF147.3
aF147.3
aF147.3
aF147.3
aF147.4
aF147.4
aF147.5
aF147.5
aF147.5
aF147.5
aF147.6
aF147.6
aF147.6
aF147.7
aF147.7
aF147.7
aF147.7
aF147.7
aF147.7
aF147.7
aF147.8
aF147.9
aF147.9
aF147.9
aF147.9
aF148.0
aF148.0
aF148.0
aF148.1
aF148.2
aF148.2
aF148.2
aF148.3
aF148.3
aF148.3
aF148.3
aF148.3
aF148.4
aF148.5
aF148.6
aF148.6
aF148.7
aF148.7
aF148.8
aF148.8
aF148.8
aF148.9
aF148.9
aF149.0
aF149.0
aF149.0
aF149.1
aF149.1
aF149.1
aF149.2
aF149.2
aF149.3
aF149.3
aF149.4
aF149.4
aF149.4
aF149.5
aF149.5
aF149.5
aF149.5
aF149.5
aF149.6
aF149.6
aF149.6
aF149.7
aF149.7
aF149.7
aF149.8
aF149.8
aF149.8
aF149.8
aF149.8
aF149.9
aF149.9
aF149.9
aF150.0
aF150.0
aF150.0
aF150.0
aF150.0
aF150.1
aF150.1
aF150.1
aF150.2
aF150.2
aF150.4
aF150.4
aF150.4
aF150.4
aF150.4
aF150.4
aF150.5
aF150.5
aF150.6
aF150.6
aF150.6
aF150.8
aF150.9
aF150.9
aF150.9
aF151.0
aF151.0
aF151.0
aF151.0
aF151.1
aF151.1
aF151.1
aF151.2
aF151.2
aF151.2
aF151.3
aF151.3
aF151.3
aF151.3
aF151.3
aF151.3
aF151.4
aF151.4
aF151.4
aF151.5
aF151.5
aF151.5
aF151.5
aF151.5
aF151.6
aF151.6
aF151.6
aF151.6
aF151.6
aF151.7
aF151.7
aF151.7
aF151.8
aF151.8
aF151.8
aF151.8
aF151.8
aF152.0
aF152.0
aF152.0
aF152.0
aF152.1
aF152.1
aF152.2
aF152.2
aF152.3
aF152.4
aF152.4
aF152.5
aF152.5
aF152.5
aF152.6
aF152.7
aF152.7
aF152.7
aF152.8
aF152.8
aF152.8
aF152.8
aF152.8
aF152.9
aF152.9
aF152.9
aF153.1
aF153.1
aF153.1
aF153.2
aF153.3
aF153.3
aF153.3
aF153.3
aF153.4
aF153.4
aF153.4
aF153.4
aF153.4
aF153.5
aF153.5
aF153.5
aF153.5
aF153.5
aF153.6
aF153.6
aF153.7
aF153.8
aF153.8
aF153.8
aF153.8
aF153.9
aF153.9
aF153.9
aF153.9
aF154.0
aF154.1
aF154.1
aF154.1
aF154.1
aF154.1
aF154.2
aF154.2
aF154.3
aF154.3
aF154.3
aF154.3
aF154.3
aF154.4
aF154.4
aF154.5
aF154.5
aF154.6
aF154.6
aF154.6
aF154.6
aF154.7
aF154.7
aF154.7
aF154.7
aF154.8
aF154.8
aF154.8
aF154.8
aF154.9
aF154.9
aF154.9
aF155.1
aF155.2
aF155.2
aF155.3
aF155.3
aF155.3
aF155.3
aF155.4
aF155.5
aF155.6
aF155.7
aF155.7
aF155.8
aF155.9
aF155.9
aF155.9
aF155.9
aF155.9
aF156.0
aF156.0
aF156.0
aF156.0
aF156.0
aF156.0
aF156.1
aF156.1
aF156.2
aF156.2
aF156.2
aF156.3
aF156.3
aF156.3
aF156.4
aF156.4
aF156.4
aF156.4
aF156.4
aF156.4
aF156.5
aF156.6
aF156.6
aF156.6
aF156.7
aF156.7
aF156.9
aF157.0
aF157.1
aF157.1
aF157.1
aF157.1
aF157.1
aF157.1
aF157.1
aF157.2
aF157.2
aF157.2
aF157.3
aF157.3
aF157.3
aF157.3
aF157.3
aF157.4
aF157.4
aF157.5
aF157.6
aF157.6
aF157.7
aF157.7
aF157.7
aF157.8
aF157.8
aF157.8
aF157.9
aF157.9
aF157.9
aF158.0
aF158.0
aF158.0
aF158.1
aF158.2
aF158.2
aF158.2
aF158.2
aF158.2
aF158.3
aF158.3
aF158.3
aF158.3
aF158.4
aF158.4
aF158.4
aF158.6
aF158.6
aF158.7
aF158.7
aF158.7
aF158.7
aF158.8
aF158.8
aF158.8
aF158.8
aF158.9
aF159.0
aF159.0
aF159.0
aF159.0
aF159.1
aF159.1
aF159.2
aF159.2
aF159.2
aF159.2
aF159.4
aF159.4
aF159.4
aF159.4
aF159.5
aF159.6
aF159.6
aF159.7
aF159.7
aF159.7
aF159.7
aF159.8
aF159.8
aF159.8
aF159.9
aF159.9
aF160.0
aF160.0
aF160.0
aF160.1
aF160.1
aF160.1
aF160.2
aF160.2
aF160.2
aF160.2
aF160.2
aF160.2
aF160.3
aF160.3
aF160.3
aF160.4
aF160.4
aF160.4
aF160.5
aF160.5
aF160.5
aF160.5
aF160.5
aF160.5
aF160.5
aF160.6
aF160.6
aF160.6
aF160.6
aF160.7
aF160.7
aF160.8
aF160.9
aF160.9
aF160.9
aF161.0
aF161.0
aF161.0
aF161.1
aF161.1
aF161.1
aF161.1
aF161.3
aF161.3
aF161.3
aF161.3
aF161.3
aF161.4
aF161.4
aF161.4
aF161.5
aF161.5
aF161.5
aF161.6
aF161.7
aF161.7
aF161.8
aF161.9
aF161.9
aF161.9
aF161.9
aF161.9
aF162.0
aF162.0
aF162.0
aF162.0
aF162.1
aF162.1
aF162.2
aF162.2
aF162.3
aF162.3
aF162.4
aF162.4
aF162.5
aF162.5
aF162.6
aF162.7
aF162.7
aF162.7
aF162.9
aF162.9
aF162.9
aF163.0
aF163.1
aF163.1
aF163.2
aF163.2
aF163.2
aF163.2
aF163.2
aF163.2
aF163.3
aF163.4
aF163.4
aF163.4
aF163.4
aF163.5
aF163.5
aF163.5
aF163.6
aF163.6
aF163.7
aF163.7
aF163.7
aF163.7
aF163.7
aF163.7
aF163.7
aF164.0
aF164.0
aF164.1
aF164.1
aF164.1
aF164.1
aF164.1
aF164.2
aF164.3
aF164.3
aF164.4
aF164.4
aF164.4
aF164.4
aF164.5
aF164.5
aF164.6
aF164.6
aF164.6
aF164.6
aF164.7
aF164.7
aF164.7
aF164.8
aF164.8
aF164.8
aF164.9
aF164.9
aF164.9
aF164.9
aF164.9
aF165.0
aF165.0
aF165.0
aF165.0
aF165.0
aF165.0
aF165.1
aF165.1
aF165.2
aF165.2
aF165.2
aF165.3
aF165.4
aF165.4
aF165.4
aF165.5
aF165.5
aF165.6
aF165.7
aF165.8
aF165.9
aF165.9
aF166.0
aF166.0
aF166.0
aF166.0
aF166.1
aF166.1
aF166.2
aF166.2
aF166.3
aF166.3
aF166.3
aF166.4
aF166.4
aF166.4
aF166.5
aF166.6
aF166.6
aF166.7
aF166.9
aF166.9
aF166.9
aF166.9
aF167.0
aF167.0
aF167.0
aF167.0
aF167.0
aF167.1
aF167.1
aF167.2
aF167.2
aF167.3
aF167.3
aF167.3
aF167.3
aF167.4
aF167.4
aF167.5
aF167.5
aF167.7
aF167.7
aF167.7
aF167.8
aF167.8
aF167.8
aF167.9
aF167.9
aF168.1
aF168.2
aF168.2
aF168.2
aF168.2
aF168.3
aF168.3
aF168.4
aF168.4
aF168.4
aF168.4
aF168.4
aF168.5
aF168.5
aF168.5
aF168.6
aF168.6
aF168.6
aF168.7
aF168.7
aF168.8
aF168.9
aF168.9
aF168.9
aF168.9
aF169.0
aF169.1
aF169.1
aF169.1
aF169.1
aF169.1
aF169.3
aF169.3
aF169.3
aF169.3
aF169.4
aF169.4
aF169.4
aF169.5
aF169.5
aF169.5
aF169.5
aF169.5
aF169.6
aF169.7
aF169.7
aF169.8
aF169.8
aF169.8
aF169.9
aF169.9
aF169.9
aF169.9
aF170.0
aF170.0
aF170.0
aF170.0
aF170.1
aF170.1
aF170.2
aF170.3
aF170.3
aF170.3
aF170.3
aF170.4
aF170.5
aF170.5
aF170.5
aF170.5
aF170.5
aF170.5
aF170.6
aF170.7
aF170.7
aF170.7
aF170.8
aF170.8
aF170.8
aF170.8
aF170.8
aF170.9
aF170.9
aF171.0
aF171.0
aF171.0
aF171.1
aF171.1
aF171.1
aF171.1
aF171.2
aF171.3
aF171.3
aF171.4
aF171.4
aF171.4
aF171.5
aF171.6
aF171.6
aF171.6
aF171.6
aF171.7
aF171.7
aF171.9
aF171.9
aF171.9
aF171.9
aF172.0
aF172.0
aF172.0
aF172.0
aF172.0
aF172.0
aF172.1
aF172.1
aF172.1
aF172.1
aF172.1
aF172.2
aF172.2
aF172.2
aF172.2
aF172.2
aF172.2
aF172.3
aF172.3
aF172.3
aF172.4
aF172.4
aF172.4
aF172.4
aF172.5
aF172.5
aF172.5
aF172.6
aF172.6
aF172.6
aF172.8
aF172.8
aF172.8
aF172.9
aF172.9
aF172.9
aF172.9
aF172.9
aF173.0
aF173.1
aF173.1
aF173.1
aF173.1
aF173.2
aF173.2
aF173.2
aF173.2
aF173.2
aF173.4
aF173.4
aF173.4
aF173.4
aF173.4
aF173.5
aF173.5
aF173.5
aF173.5
aF173.6
aF173.7
aF173.7
aF173.7
aF173.8
aF173.8
aF173.8
aF173.8
aF173.9
aF174.0
aF174.0
aF174.0
aF174.0
aF174.1
aF174.1
aF174.1
aF174.2
aF174.2
aF174.3
aF174.3
aF174.3
aF174.3
aF174.3
aF174.4
aF174.4
aF174.4
aF174.4
aF174.4
aF174.4
aF174.5
aF174.5
aF174.5
aF174.6
aF174.7
aF174.7
aF174.7
aF174.8
aF174.8
aF174.8
aF174.8
aF174.9
aF174.9
aF174.9
aF174.9
aF174.9
aF174.9
aF174.9
aF175.0
aF175.1
aF175.1
aF175.1
aF175.2
aF175.2
aF175.2
aF175.2
aF175.3
aF175.4
aF175.4
aF175.5
aF175.5
aF175.6
aF175.6
aF175.6
aF175.6
aF175.6
aF175.6
aF175.7
aF175.7
aF175.8
aF175.8
aF175.9
aF175.9
aF176.0
aF176.1
aF176.1
aF176.2
aF176.2
aF176.2
aF176.3
aF176.4
aF176.6
aF176.6
aF176.6
aF176.7
aF176.7
aF176.8
aF176.8
aF176.8
aF176.8
aF176.9
aF176.9
aF177.0
aF177.0
aF177.0
aF177.1
aF177.2
aF177.2
aF177.2
aF177.5
aF177.6
aF177.7
aF177.7
aF177.8
aF177.8
aF177.9
aF178.0
aF178.0
aF178.0
aF178.1
aF178.1
aF178.3
aF178.3
aF178.3
aF178.4
aF178.5
aF178.5
aF178.5
aF178.6
aF178.6
aF178.6
aF178.7
aF178.8
aF178.8
aF178.9
aF178.9
aF178.9
aF179.0
aF179.1
aF179.1
aF179.1
aF179.2
aF179.3
aF179.3
aF179.4
aF179.5
aF179.5
aF179.5
aF179.6
aF179.7
aF179.7
aF179.7
aF179.7
aF179.8
aF179.8
aF179.8
aF179.8
aF179.9
aF179.9
aF179.9
aF179.9
aF180.0
aF180.0
aF180.0
aF180.1
aF180.1
aF180.1
aF180.2
aF180.2
aF180.3
aF180.3
aF180.3
aF180.3
aF180.3
aF180.3
aF180.5
aF180.5
aF180.6
aF180.6
aF180.7
aF180.7
aF180.8
aF180.8
aF180.9
aF181.0
aF181.0
aF181.1
aF181.1
aF181.1
aF181.2
aF181.2
aF181.2
aF181.2
aF181.2
aF181.2
aF181.3
aF181.3
aF181.4
aF181.4
aF181.5
aF181.5
aF181.6
aF181.7
aF181.8
aF181.8
aF181.9
aF181.9
aF182.0
aF182.0
aF182.0
aF182.1
aF182.1
aF182.2
aF182.2
aF182.3
aF182.3
aF182.3
aF182.3
aF182.4
aF182.4
aF182.4
aF182.4
aF182.4
aF182.4
aF182.4
aF182.5
aF182.6
aF182.6
aF182.6
aF182.8
aF182.8
aF182.8
aF182.9
aF183.0
aF183.0
aF183.0
aF183.0
aF183.0
aF183.0
aF183.1
aF183.2
aF183.3
aF183.3
aF183.3
aF183.3
aF183.3
aF183.3
aF183.5
aF183.5
aF183.5
aF183.5
aF183.6
aF183.6
aF183.6
aF183.6
aF183.6
aF183.7
aF183.7
aF183.7
aF183.8
aF183.8
aF183.9
aF183.9
aF183.9
aF183.9
aF184.0
aF184.0
aF184.0
aF184.0
aF184.1
aF184.1
aF184.1
aF184.1
aF184.2
aF184.3
aF184.3
aF184.3
aF184.3
aF184.4
aF184.4
aF184.4
aF184.5
aF184.5
aF184.7
aF184.7
aF184.7
aF184.8
aF184.8
aF184.9
aF184.9
aF185.0
aF185.0
aF185.1
aF185.1
aF185.1
aF185.2
aF185.2
aF185.2
aF185.2
aF185.2
aF185.2
aF185.3
aF185.3
aF185.3
aF185.5
aF185.7
aF185.7
aF185.7
aF185.9
aF185.9
aF185.9
aF186.1
aF186.2
aF186.2
aF186.3
aF186.4
aF186.4
aF186.4
aF186.5
aF186.6
aF186.6
aF186.7
aF186.8
aF186.8
aF186.9
aF187.0
aF187.0
aF187.1
aF187.1
aF187.3
aF187.3
aF187.3
aF187.4
aF187.4
aF187.4
aF187.4
aF187.4
aF187.6
aF187.6
aF187.6
aF187.7
aF187.7
aF187.7
aF187.9
aF187.9
aF188.0
aF188.0
aF188.1
aF188.1
aF188.1
aF188.1
aF188.1
aF188.2
aF188.2
aF188.3
aF188.3
aF188.5
aF188.5
aF188.5
aF188.6
aF188.6
aF188.6
aF188.6
aF188.6
aF188.7
aF188.8
aF188.8
aF188.8
aF188.9
aF188.9
aF189.0
aF189.0
aF189.0
aF189.0
aF189.1
aF189.2
aF189.2
aF189.3
aF189.3
aF189.4
aF189.5
aF189.5
aF189.5
aF189.6
aF189.7
aF189.7
aF189.7
aF189.7
aF189.8
aF189.8
aF189.9
aF189.9
aF189.9
aF189.9
aF189.9
aF189.9
aF190.0
aF190.0
aF190.0
aF190.1
aF190.1
aF190.2
aF190.2
aF190.2
aF190.2
aF190.3
aF190.3
aF190.4
aF190.4
aF190.4
aF190.5
aF190.6
aF190.6
aF190.6
aF190.7
aF190.8
aF190.8
aF190.9
aF190.9
aF190.9
aF190.9
aF191.0
aF191.0
aF191.1
aF191.1
aF191.2
aF191.2
aF191.3
aF191.3
aF191.4
aF191.4
aF191.5
aF191.5
aF191.6
aF191.6
aF191.7
aF191.7
aF191.7
aF191.8
aF191.8
aF191.9
aF192.0
aF192.1
aF192.1
aF192.2
aF192.2
aF192.2
aF192.2
aF192.3
aF192.3
aF192.3
aF192.4
aF192.4
aF192.5
aF192.5
aF192.6
aF192.6
aF192.7
aF192.8
aF192.8
aF192.9
aF192.9
aF192.9
aF193.0
aF193.0
aF193.0
aF193.0
aF193.1
aF193.1
aF193.1
aF193.1
aF193.2
aF193.2
aF193.2
aF193.3
aF193.5
aF193.6
aF193.8
aF193.8
aF193.9
aF194.0
aF194.1
aF194.2
aF194.5
aF194.5
aF194.6
aF194.6
aF194.7
aF194.7
aF194.7
aF194.7
aF194.9
aF195.0
aF195.0
aF195.1
aF195.1
aF195.2
aF195.2
aF195.3
aF195.3
aF195.5
aF195.5
aF195.6
aF195.7
aF195.7
aF195.7
aF195.7
aF195.8
aF195.8
aF195.9
aF195.9
aF195.9
aF195.9
aF195.9
aF196.0
aF196.1
aF196.1
aF196.2
aF196.2
aF196.3
aF196.4
aF196.5
aF196.6
aF196.6
aF196.7
aF196.7
aF196.8
aF196.8
aF196.9
aF196.9
aF197.0
aF197.0
aF197.0
aF197.1
aF197.1
aF197.2
aF197.3
aF197.3
aF197.3
aF197.3
aF197.3
aF197.5
aF197.5
aF197.5
aF197.5
aF197.5
aF197.6
aF197.7
aF197.7
aF197.9
aF197.9
aF197.9
aF198.0
aF198.0
aF198.1
aF198.1
aF198.2
aF198.3
aF198.3
aF198.3
aF198.4
aF198.4
aF198.6
aF198.6
aF198.6
aF198.6
aF198.7
aF198.7
aF198.8
aF198.8
aF198.9
aF198.9
aF198.9
aF199.0
aF199.0
aF199.1
aF199.2
aF199.2
aF199.3
aF199.4
aF199.4
aF199.5
aF199.5
aF199.6
aF199.6
aF199.6
aF199.7
aF199.7
aF199.8
aF199.8
aF199.8
aF199.8
aF199.9
aF199.9
aF199.9
aF200.0
aF200.0
aF200.0
aF200.0
aF200.1
aF200.2
aF200.2
aF200.2
aF200.2
aF200.2
aF200.3
aF200.3
aF200.5
aF200.6
aF200.7
aF200.7
aF200.8
aF200.8
aF200.9
aF200.9
aF200.9
aF200.9
aF201.0
aF201.0
aF201.0
aF201.1
aF201.2
aF201.3
aF201.3
aF201.3
aF201.4
aF201.4
aF201.5
aF201.6
aF201.6
aF202.1
aF202.1
aF202.2
aF202.2
aF202.2
aF202.3
aF202.3
aF202.3
aF202.4
aF202.4
aF202.4
aF202.4
aF202.4
aF202.4
aF202.5
aF202.6
aF202.7
aF202.8
aF202.8
aF202.9
aF202.9
aF203.0
aF203.0
aF203.0
aF203.1
aF203.1
aF203.1
aF203.1
aF203.1
aF203.2
aF203.2
aF203.2
aF203.4
aF203.5
aF203.5
aF203.5
aF203.5
aF203.6
aF203.7
aF203.8
aF203.8
aF203.9
aF203.9
aF204.2
aF204.2
aF204.3
aF204.3
aF204.4
aF204.5
aF204.6
aF204.6
aF204.6
aF204.6
aF204.6
aF204.6
aF204.6
aF204.7
aF204.7
aF204.7
aF204.8
aF204.9
aF204.9
aF204.9
aF205.0
aF205.0
aF205.0
aF205.0
aF205.1
aF205.1
aF205.2
aF205.2
aF205.3
aF205.3
aF205.4
aF205.5
aF205.6
aF205.6
aF205.6
aF205.7
aF205.7
aF205.8
aF205.8
aF205.8
aF206.0
aF206.1
aF206.2
aF206.2
aF206.2
aF206.2
aF206.3
aF206.3
aF206.5
aF206.5
aF206.5
aF206.6
aF206.6
aF206.6
aF206.6
aF206.7
aF206.7
aF206.7
aF206.7
aF206.8
aF207.0
aF207.0
aF207.1
aF207.3
aF207.3
aF207.4
aF207.4
aF207.7
aF207.8
aF207.9
aF208.0
aF208.0
aF208.0
aF208.0
aF208.1
aF208.3
aF208.3
aF208.4
aF208.5
aF208.6
aF208.7
aF208.7
aF208.7
aF208.8
aF208.8
aF208.8
aF208.8
aF208.8
aF209.0
aF209.1
aF209.2
aF209.2
aF209.2
aF209.2
aF209.3
aF209.4
aF209.5
aF209.6
aF209.8
aF209.8
aF209.8
aF209.9
aF209.9
aF209.9
aF210.0
aF210.1
aF210.1
aF210.1
aF210.1
aF210.2
aF210.2
aF210.4
aF210.5
aF210.5
aF210.6
aF210.6
aF210.6
aF210.6
aF210.7
aF210.7
aF210.8
aF210.8
aF211.0
aF211.0
aF211.1
aF211.1
aF211.3
aF211.3
aF211.3
aF211.3
aF211.4
aF211.4
aF211.4
aF211.7
aF211.8
aF211.8
aF211.9
aF211.9
aF212.0
aF212.0
aF212.1
aF212.1
aF212.2
aF212.2
aF212.2
aF212.3
aF212.4
aF212.4
aF212.6
aF212.6
aF212.6
aF212.7
aF212.7
aF212.7
aF212.8
aF212.8
aF212.8
aF212.8
aF212.8
aF212.9
aF213.0
aF213.1
aF213.1
aF213.1
aF213.1
aF213.2
aF213.2
aF213.3
aF213.4
aF213.4
aF213.5
aF213.5
aF213.5
aF213.6
aF213.6
aF213.7
aF213.8
aF213.8
aF213.8
aF213.8
aF213.9
aF213.9
aF214.0
aF214.0
aF214.1
aF214.1
aF214.2
aF214.2
aF214.3
aF214.3
aF214.3
aF214.4
aF214.4
aF214.5
aF214.5
aF214.5
aF214.6
aF214.7
aF214.7
aF214.7
aF214.8
aF214.8
aF214.8
aF214.9
aF214.9
aF215.1
aF215.2
aF215.2
aF215.2
aF215.2
aF215.3
aF215.3
aF215.3
aF215.3
aF215.4
aF215.4
aF215.5
aF215.5
aF215.5
aF215.6
aF215.6
aF215.7
aF215.7
aF215.8
aF215.8
aF215.8
aF215.9
aF215.9
aF216.0
aF216.0
aF216.1
aF216.1
aF216.2
aF216.2
aF216.2
aF216.2
aF216.3
aF216.3
aF216.3
aF216.4
aF216.5
aF216.5
aF216.6
aF216.7
aF216.7
aF216.9
aF216.9
aF216.9
aF217.1
aF217.2
aF217.2
aF217.3
aF217.5
aF217.5
aF217.6
aF217.6
aF217.6
aF217.6
aF217.7
aF217.7
aF217.8
aF217.8
aF217.8
aF217.8
aF217.9
aF217.9
aF218.0
aF218.0
aF218.2
aF218.2
aF218.2
aF218.4
aF218.5
aF218.5
aF218.5
aF218.5
aF218.5
aF218.6
aF218.6
aF218.7
aF218.8
aF218.9
aF219.0
aF219.1
aF219.1
aF219.2
aF219.2
aF219.2
aF219.2
aF219.2
aF219.3
aF219.4
aF219.5
aF219.5
aF219.7
aF219.8
aF219.8
aF219.8
aF219.8
aF219.8
aF219.9
aF220.0
aF220.1
aF220.1
aF220.2
aF220.2
aF220.3
aF220.3
aF220.3
aF220.3
aF220.4
aF220.4
aF220.4
aF220.6
aF220.6
aF220.6
aF220.6
aF220.6
aF220.7
aF220.9
aF220.9
aF221.0
aF221.0
aF221.1
aF221.2
aF221.3
aF221.3
aF221.4
aF221.6
aF221.6
aF221.6
aF221.6
aF221.6
aF221.6
aF221.7
aF221.8
aF221.8
aF221.9
aF221.9
aF221.9
aF222.2
aF222.2
aF222.3
aF222.3
aF222.4
aF222.6
aF222.6
aF222.7
aF222.7
aF222.8
aF222.8
aF222.8
aF222.9
aF222.9
aF223.0
aF223.0
aF223.1
aF223.1
aF223.1
aF223.3
aF223.3
aF223.3
aF223.4
aF223.5
aF223.5
aF223.6
aF223.6
aF223.8
aF223.8
aF223.8
aF223.8
aF223.9
aF223.9
aF224.0
aF224.0
aF224.0
aF224.1
aF224.1
aF224.1
aF224.2
aF224.2
aF224.3
aF224.4
aF224.4
aF224.4
aF224.4
aF224.4
aF224.5
aF224.5
aF224.6
aF224.6
aF224.8
aF224.8
aF224.9
aF224.9
aF225.0
aF225.0
aF225.0
aF225.3
aF225.4
aF225.4
aF225.6
aF225.6
aF225.7
aF225.8
aF225.8
aF225.8
aF225.9
aF225.9
aF225.9
aF226.0
aF226.1
aF226.2
aF226.2
aF226.2
aF226.2
aF226.2
aF226.3
aF226.3
aF226.3
aF226.4
aF226.6
aF226.6
aF226.7
aF226.9
aF226.9
aF226.9
aF227.0
aF227.0
aF227.2
aF227.2
aF227.3
aF227.3
aF227.3
aF227.3
aF227.4
aF227.4
aF227.4
aF227.5
aF227.5
aF227.5
aF227.6
aF227.6
aF227.7
aF227.9
aF227.9
aF227.9
aF228.0
aF228.0
aF228.0
aF228.0
aF228.3
aF228.4
aF228.4
aF228.4
aF228.5
aF228.5
aF228.6
aF228.7
aF228.7
aF228.7
aF228.8
aF228.9
aF228.9
aF228.9
aF228.9
aF229.0
aF229.0
aF229.1
aF229.2
aF229.3
aF229.3
aF229.4
aF229.4
aF229.4
aF229.5
aF229.5
aF229.5
aF229.5
aF229.6
aF229.6
aF229.6
aF229.8
aF229.8
aF229.9
aF229.9
aF230.0
aF230.2
aF230.2
aF230.3
aF230.4
aF230.6
aF230.6
aF230.6
aF230.7
aF230.7
aF230.8
aF230.8
aF230.9
aF230.9
aF231.1
aF231.2
aF231.3
aF231.3
aF231.4
aF231.4
aF231.5
aF231.6
aF231.6
aF231.6
aF231.7
aF231.7
aF231.8
aF231.8
aF231.9
aF231.9
aF232.0
aF232.0
aF232.0
aF232.0
aF232.1
aF232.1
aF232.2
aF232.2
aF232.3
aF232.3
aF232.5
aF232.6
aF232.6
aF232.6
aF232.7
aF232.7
aF232.8
aF232.8
aF232.8
aF233.0
aF233.0
aF233.2
aF233.4
aF233.4
aF233.4
aF233.5
aF233.5
aF233.6
aF233.6
aF233.6
aF233.8
aF233.9
aF234.0
aF234.1
aF234.1
aF234.1
aF234.1
aF234.3
aF234.3
aF234.5
aF234.6
aF234.8
aF234.8
aF234.8
aF234.9
aF235.1
aF235.3
aF235.4
aF235.5
aF235.5
aF235.5
aF235.6
aF235.6
aF235.7
aF235.7
aF235.8
aF236.0
aF236.3
aF236.3
aF236.4
aF236.5
aF236.5
aF236.5
aF236.6
aF236.6
aF236.7
aF236.8
aF236.8
aF236.9
aF236.9
aF236.9
aF236.9
aF236.9
aF237.1
aF237.2
aF237.2
aF237.3
aF237.4
aF237.4
aF237.4
aF237.4
aF237.5
aF237.6
aF237.8
aF237.9
aF238.0
aF238.0
aF238.2
aF238.3
aF238.3
aF238.3
aF238.5
aF238.5
aF238.5
aF238.6
aF238.7
aF238.8
aF239.1
aF239.1
aF239.1
aF239.1
aF239.2
aF239.2
aF239.2
aF239.3
aF239.3
aF239.3
aF239.3
aF239.4
aF239.4
aF239.4
aF239.5
aF239.5
aF239.6
aF239.8
aF239.8
aF239.9
aF239.9
aF240.1
aF240.4
aF240.4
aF240.4
aF240.5
aF240.6
aF240.7
aF240.7
aF240.8
aF240.8
aF240.9
aF240.9
aF240.9
aF241.0
aF241.0
aF241.0
aF241.1
aF241.1
aF241.3
aF241.3
aF241.3
aF241.4
aF241.5
aF241.5
aF241.6
aF241.6
aF241.7
aF241.8
aF241.8
aF241.9
aF241.9
aF242.1
aF242.1
aF242.1
aF242.1
aF242.1
aF242.1
aF242.3
aF242.3
aF242.3
aF242.3
aF242.3
aF242.3
aF242.3
aF242.4
aF242.4
aF242.5
aF242.5
aF242.6
aF242.7
aF242.8
aF242.8
aF242.8
aF242.9
aF242.9
aF242.9
aF243.0
aF243.0
aF243.1
aF243.1
aF243.2
aF243.2
aF243.3
aF243.3
aF243.5
aF243.5
aF243.6
aF243.7
aF243.8
aF243.8
aF243.9
aF244.0
aF244.0
aF244.2
aF244.3
aF244.3
aF244.4
aF244.4
aF244.4
aF244.7
aF244.9
aF245.0
aF245.1
aF245.1
aF245.2
aF245.2
aF245.2
aF245.2
aF245.3
aF245.4
aF245.6
aF245.7
aF245.7
aF245.8
aF245.9
aF245.9
aF246.0
aF246.0
aF246.1
aF246.1
aF246.2
aF246.2
aF246.4
aF246.4
aF246.7
aF246.9
aF247.0
aF247.0
aF247.1
aF247.3
aF247.4
aF247.4
aF247.5
aF247.5
aF247.6
aF247.6
aF247.7
aF247.7
aF247.7
aF247.7
aF247.8
aF247.8
aF247.9
aF247.9
aF247.9
aF247.9
aF248.0
aF248.0
aF248.1
aF248.1
aF248.2
aF248.2
aF248.3
aF248.4
aF248.5
aF248.5
aF248.6
aF248.6
aF248.6
aF248.7
aF248.8
aF248.9
aF249.0
aF249.1
aF249.2
aF249.3
aF249.3
aF249.3
aF249.4
aF249.6
aF249.6
aF249.6
aF249.7
aF249.8
aF249.8
aF249.8
aF249.8
aF249.9
aF250.0
aF250.0
aF250.1
aF250.3
aF250.3
aF250.3
aF250.3
aF250.5
aF250.5
aF250.5
aF250.6
aF250.6
aF250.6
aF250.7
aF250.8
aF250.8
aF250.9
aF250.9
aF250.9
aF250.9
aF251.0
aF251.3
aF251.3
aF251.3
aF251.5
aF251.6
aF251.7
aF251.8
aF251.8
aF251.9
aF251.9
aF252.0
aF252.0
aF252.0
aF252.1
aF252.2
aF252.2
aF252.3
aF252.4
aF252.5
aF252.7
aF252.8
aF252.8
aF252.8
aF253.1
aF253.1
aF253.2
aF253.4
aF253.6
aF253.8
aF253.8
aF253.9
aF254.0
aF254.1
aF254.1
aF254.2
aF254.2
aF254.3
aF254.4
aF254.5
aF254.5
aF254.7
aF254.8
aF255.0
aF255.2
aF255.2
aF255.3
aF255.4
aF255.4
aF255.5
aF255.6
aF255.8
aF255.9
aF256.0
aF256.1
aF256.2
aF256.2
aF256.3
aF256.3
aF256.3
aF256.5
aF256.6
aF256.6
aF256.7
aF256.7
aF256.7
aF256.7
aF256.8
aF256.8
aF256.9
aF257.2
aF257.3
aF257.4
aF257.4
aF257.6
aF257.7
aF257.7
aF257.8
aF257.9
aF257.9
aF258.0
aF258.1
aF258.1
aF258.1
aF258.1
aF258.2
aF258.3
aF258.3
aF258.3
aF258.4
aF258.6
aF258.7
aF258.8
aF258.8
aF259.0
aF259.1
aF259.2
aF259.3
aF259.3
aF259.4
aF259.5
aF259.7
aF259.7
aF259.7
aF259.7
aF259.8
aF259.9
aF260.0
aF260.1
aF260.3
aF260.3
aF260.3
aF260.5
aF260.5
aF260.6
aF260.6
aF260.7
aF260.8
aF260.8
aF260.8
aF260.9
aF260.9
aF261.0
aF261.0
aF261.1
aF261.2
aF261.2
aF261.3
aF261.6
aF261.7
aF261.7
aF262.1
aF262.1
aF262.3
aF262.4
aF262.4
aF262.4
aF262.4
aF262.5
aF262.6
aF262.6
aF262.9
aF262.9
aF263.0
aF263.1
aF263.1
aF263.2
aF263.4
aF263.4
aF263.6
aF263.6
aF263.7
aF263.8
aF263.9
aF263.9
aF263.9
aF264.1
aF264.3
aF264.3
aF264.3
aF264.5
aF264.7
aF264.7
aF264.8
aF264.9
aF264.9
aF265.1
aF265.3
aF265.3
aF265.5
aF265.6
aF265.6
aF265.7
aF265.7
aF265.8
aF265.9
aF265.9
aF266.0
aF266.1
aF266.2
aF266.3
aF266.3
aF266.4
aF266.4
aF266.5
aF266.5
aF266.6
aF266.6
aF266.8
aF266.8
aF267.0
aF267.2
aF267.3
aF267.3
aF267.6
aF267.6
aF267.8
aF267.8
aF267.9
aF268.0
aF268.0
aF268.2
aF268.3
aF268.5
aF268.6
aF268.6
aF268.6
aF268.7
aF268.7
aF268.8
aF268.8
aF268.8
aF268.9
aF268.9
aF269.0
aF269.2
aF269.3
aF269.3
aF269.5
aF269.5
aF269.8
aF269.8
aF269.8
aF269.8
aF269.9
aF269.9
aF270.0
aF270.1
aF270.1
aF270.1
aF270.3
aF270.3
aF270.3
aF270.5
aF270.5
aF270.7
aF270.8
aF271.2
aF271.2
aF271.6
aF271.6
aF271.7
aF271.7
aF271.9
aF271.9
aF271.9
aF272.1
aF272.2
aF272.2
aF272.3
aF272.4
aF272.4
aF272.4
aF272.5
aF272.8
aF272.8
aF272.8
aF272.9
aF273.0
aF273.0
aF273.3
aF273.3
aF273.4
aF273.5
aF273.6
aF273.6
aF273.6
aF273.8
aF273.8
aF273.8
aF274.2
aF274.2
aF274.2
aF274.2
aF274.3
aF274.4
aF274.4
aF274.4
aF274.5
aF274.6
aF274.6
aF274.6
aF274.7
aF274.8
aF275.0
aF275.2
aF275.3
aF275.4
aF275.4
aF275.5
aF275.7
aF275.7
aF275.7
aF275.8
aF275.9
aF276.1
aF276.2
aF276.3
aF276.3
aF276.3
aF276.6
aF276.7
aF276.9
aF277.0
aF277.0
aF277.1
aF277.4
aF277.6
aF277.8
aF277.9
aF277.9
aF278.0
aF278.1
aF278.1
aF278.3
aF278.4
aF278.5
aF278.6
aF278.8
aF278.9
aF279.0
aF279.1
aF279.2
aF279.4
aF279.5
aF279.6
aF280.5
aF280.5
aF280.5
aF280.7
aF280.7
aF280.8
aF280.9
aF280.9
aF280.9
aF281.0
aF281.0
aF281.0
aF281.0
aF281.1
aF281.2
aF281.3
aF281.3
aF281.4
aF281.4
aF281.4
aF281.6
aF281.8
aF281.9
aF282.0
aF282.0
aF282.0
aF282.2
aF282.2
aF282.3
aF282.5
aF282.6
aF282.6
aF282.7
aF282.7
aF282.8
aF283.1
aF283.1
aF283.1
aF283.2
aF283.2
aF283.3
aF283.3
aF283.4
aF283.4
aF283.4
aF283.5
aF283.7
aF283.7
aF283.8
aF283.8
aF283.9
aF284.0
aF284.0
aF284.0
aF284.0
aF284.1
aF284.1
aF284.1
aF284.2
aF284.3
aF284.5
aF284.6
aF284.9
aF285.0
aF285.0
aF285.1
aF285.2
aF285.3
aF285.4
aF285.6
aF285.6
aF285.9
aF285.9
aF286.0
aF286.3
aF286.3
aF286.3
aF286.5
aF286.5
aF286.6
aF286.7
aF286.8
aF286.8
aF286.9
aF287.1
aF287.1
aF287.1
aF287.2
aF287.2
aF287.3
aF287.7
aF287.7
aF287.7
aF287.8
aF287.8
aF287.9
aF288.0
aF288.1
aF288.1
aF288.3
aF288.3
aF288.3
aF288.4
aF288.4
aF288.8
aF288.8
aF288.9
aF288.9
aF289.0
aF289.0
aF289.1
aF289.4
aF289.6
aF289.6
aF289.7
aF290.0
aF290.0
aF290.0
aF290.3
aF290.3
aF290.6
aF290.6
aF290.8
aF291.0
aF291.1
aF291.2
aF291.3
aF291.5
aF291.6
aF291.6
aF291.7
aF291.9
aF291.9
aF292.0
aF292.0
aF292.1
aF292.1
aF292.2
aF292.3
aF292.3
aF292.3
aF292.4
aF292.5
aF292.5
aF292.7
aF292.7
aF292.7
aF292.8
aF292.9
aF292.9
aF293.2
aF293.4
aF293.4
aF293.5
aF293.6
aF293.8
aF293.8
aF293.9
aF294.0
aF294.0
aF294.0
aF294.2
aF294.3
aF294.5
aF294.5
aF294.7
aF294.8
aF294.8
aF294.9
aF295.0
aF295.1
aF295.3
aF295.6
aF295.7
aF295.9
aF296.0
aF296.1
aF296.2
aF296.6
aF296.7
aF296.7
aF296.9
aF297.0
aF297.3
aF297.3
aF297.3
aF297.5
aF297.6
aF297.9
aF298.0
aF298.0
aF298.1
aF298.1
aF298.6
aF298.7
aF298.8
aF299.2
aF299.2
aF299.2
aF299.5
aF299.6
aF299.6
aF299.9
aF299.9
aF300.0
aF300.1
aF300.1
aF300.1
aF300.2
aF300.3
aF300.3
aF300.5
aF300.7
aF300.8
aF300.8
aF300.9
aF301.0
aF301.2
aF301.4
aF301.4
aF301.5
aF301.5
aF301.6
aF301.6
aF301.6
aF301.8
aF301.9
aF301.9
aF301.9
aF301.9
aF302.1
aF302.3
aF302.3
aF302.3
aF302.5
aF302.6
aF302.7
aF302.7
aF303.3
aF303.6
aF303.7
aF303.7
aF303.7
aF303.9
aF304.2
aF304.2
aF304.5
aF304.5
aF304.7
aF304.9
aF305.0
aF305.0
aF305.1
aF305.4
aF305.6
aF305.7
aF305.9
aF306.0
aF306.4
aF306.5
aF306.6
aF306.6
aF306.9
aF306.9
aF306.9
aF306.9
aF307.0
aF307.0
aF307.1
aF307.3
aF307.4
aF307.4
aF307.4
aF307.5
aF307.7
aF307.7
aF308.0
aF308.1
aF308.2
aF308.3
aF308.3
aF308.4
aF308.8
aF308.9
aF308.9
aF308.9
aF309.2
aF309.3
aF309.4
aF309.4
aF309.5
aF309.8
aF309.8
aF309.8
aF309.9
aF310.1
aF310.1
aF310.2
aF310.6
aF310.9
aF311.0
aF311.0
aF311.1
aF311.3
aF311.3
aF311.3
aF311.4
aF311.5
aF311.7
aF311.8
aF311.8
aF311.9
aF312.0
aF312.0
aF312.1
aF312.2
aF312.3
aF312.5
aF312.5
aF312.8
aF312.9
aF313.2
aF313.3
aF313.3
aF313.6
aF313.6
aF313.7
aF313.7
aF313.8
aF313.8
aF314.2
aF314.3
aF314.5
aF315.0
aF315.2
aF315.2
aF315.2
aF315.3
aF315.4
aF315.5
aF315.7
aF315.8
aF315.8
aF316.1
aF316.1
aF316.5
aF316.6
aF316.6
aF316.9
aF317.0
aF317.0
aF317.2
aF317.2
aF317.3
aF317.7
aF317.8
aF317.9
aF318.0
aF318.2
aF318.3
aF318.5
aF318.9
aF319.0
aF319.1
aF319.2
aF319.2
aF319.2
aF319.3
aF319.5
aF319.5
aF319.6
aF319.7
aF319.7
aF319.8
aF320.0
aF320.1
aF320.1
aF320.3
aF320.3
aF320.4
aF320.4
aF320.5
aF320.5
aF320.5
aF320.6
aF320.9
aF320.9
aF321.0
aF321.0
aF321.2
aF321.3
aF321.4
aF322.0
aF322.3
aF322.4
aF322.4
aF322.5
aF322.6
aF322.6
aF322.7
aF322.8
aF323.2
aF323.2
aF323.3
aF323.3
aF323.3
aF323.4
aF323.6
aF323.7
aF323.7
aF323.8
aF323.9
aF323.9
aF323.9
aF324.2
aF324.5
aF324.5
aF324.8
aF324.9
aF325.0
aF325.0
aF325.1
aF325.1
aF325.2
aF325.7
aF325.8
aF326.2
aF326.3
aF326.3
aF326.4
aF326.6
aF326.6
aF326.6
aF326.8
aF326.8
aF327.0
aF327.0
aF327.1
aF327.1
aF327.4
aF327.8
aF327.9
aF328.0
aF328.0
aF328.1
aF328.1
aF328.1
aF328.1
aF328.6
aF328.6
aF328.6
aF328.6
aF328.8
aF328.8
aF328.8
aF329.0
aF329.0
aF329.1
aF329.1
aF329.2
aF329.3
aF329.5
aF329.6
aF329.6
aF329.6
aF329.6
aF329.7
aF329.9
aF330.0
aF330.1
aF330.2
aF330.3
aF330.5
aF330.5
aF330.7
aF330.7
aF331.1
aF331.2
aF331.4
aF331.6
aF331.7
aF331.9
aF331.9
aF332.0
aF332.0
aF332.3
aF332.3
aF332.3
aF332.4
aF332.5
aF332.6
aF332.7
aF333.3
aF333.3
aF333.4
aF333.6
aF333.7
aF333.8
aF333.9
aF333.9
aF334.4
aF334.5
aF335.0
aF335.1
aF335.1
aF335.2
aF335.3
aF335.6
aF335.6
aF335.7
aF335.7
aF336.0
aF336.3
aF336.6
aF336.7
aF336.8
aF337.0
aF337.1
aF337.5
aF337.9
aF338.0
aF338.4
aF338.5
aF338.5
aF338.6
aF338.8
aF338.8
aF338.8
aF339.0
aF339.1
aF339.2
aF339.4
aF339.8
aF339.9
aF340.1
aF340.1
aF340.1
aF340.1
aF340.5
aF340.6
aF340.6
aF340.9
aF340.9
aF341.1
aF341.3
aF341.7
aF341.7
aF341.7
aF341.9
aF342.0
aF342.0
aF342.1
aF342.4
aF342.4
aF342.4
aF342.4
aF342.4
aF342.6
aF342.7
aF342.7
aF342.8
aF343.2
aF343.2
aF343.4
aF343.5
aF343.6
aF343.6
aF343.7
aF344.0
aF344.1
aF344.2
aF344.5
aF344.5
aF344.7
aF344.8
aF345.2
aF345.4
aF345.6
aF345.9
aF346.0
aF346.4
aF346.9
aF347.2
aF347.3
aF347.6
aF347.6
aF348.1
aF348.2
aF348.3
aF348.5
aF348.7
aF348.9
aF349.2
aF349.5
aF349.7
aF349.7
aF349.7
aF350.1
aF350.1
aF350.4
aF350.9
aF351.2
aF351.2
aF351.4
aF351.8
aF352.2
aF352.2
aF352.3
aF352.4
aF352.5
aF352.6
aF353.0
aF353.3
aF353.4
aF353.7
aF353.9
aF353.9
aF354.3
aF354.5
aF355.2
aF355.5
aF355.6
aF355.9
aF356.0
aF356.0
aF356.1
aF356.5
aF356.5
aF357.2
aF357.2
aF357.3
aF358.0
aF358.1
aF358.1
aF358.4
aF358.5
aF358.5
aF358.9
aF358.9
aF359.1
aF359.2
aF359.5
aF359.6
aF359.6
aF359.6
aF359.8
aF359.8
aF360.2
aF360.4
aF360.8
aF361.0
aF361.1
aF361.5
aF361.6
aF361.8
aF361.9
aF362.3
aF362.6
aF362.6
aF363.3
aF363.4
aF363.4
aF363.4
aF363.6
aF363.7
aF363.8
aF363.9
aF364.0
aF364.1
aF364.2
aF364.4
aF364.7
aF364.8
aF365.3
aF365.4
aF366.3
aF366.3
aF366.4
aF366.4
aF366.8
aF366.9
aF367.2
aF367.3
aF367.5
aF367.8
aF368.3
aF368.5
aF368.6
aF368.8
aF369.0
aF369.0
aF369.5
aF369.7
aF370.4
aF370.4
aF370.4
aF370.5
aF370.5
aF370.9
aF371.0
aF371.1
aF371.4
aF371.7
aF371.8
aF371.8
aF371.9
aF372.1
aF372.1
aF372.2
aF372.7
aF372.7
aF372.8
aF372.9
aF373.4
aF373.4
aF374.0
aF374.1
aF374.2
aF374.3
aF374.5
aF374.6
aF374.7
aF374.7
aF374.9
aF375.1
aF375.4
aF376.2
aF376.4
aF376.4
aF376.5
aF376.5
aF376.5
aF377.0
aF377.1
aF377.3
aF377.6
aF377.6
aF377.8
aF377.8
aF378.0
aF378.7
aF378.9
aF378.9
aF378.9
aF379.2
aF379.7
aF379.8
aF379.8
aF380.2
aF380.4
aF380.5
aF380.6
aF380.9
aF381.0
aF381.3
aF381.4
aF381.4
aF381.7
aF381.8
aF381.9
aF382.0
aF382.1
aF382.7
aF382.7
aF382.8
aF383.0
aF383.1
aF383.4
aF383.7
aF384.1
aF384.2
aF384.3
aF384.4
aF384.9
aF385.1
aF385.3
aF386.2
aF386.2
aF386.5
aF386.6
aF386.7
aF387.4
aF387.7
aF387.7
aF387.8
aF387.8
aF388.2
aF388.2
aF388.3
aF388.8
aF388.9
aF389.0
aF389.1
aF389.6
aF389.8
aF389.8
aF389.9
aF390.3
aF390.6
aF391.0
aF391.2
aF391.4
aF392.2
aF392.2
aF392.3
aF392.3
aF392.3
aF392.7
aF392.8
aF393.1
aF393.6
aF394.3
aF394.3
aF395.0
aF395.2
aF395.5
aF395.9
aF396.3
aF396.3
aF396.5
aF396.8
aF396.9
aF397.0
aF397.2
aF397.2
aF397.3
aF398.1
aF399.0
aF399.2
aF399.3
aF400.3
aF400.5
aF400.7
aF400.8
aF400.8
aF401.2
aF401.4
aF401.4
aF401.8
aF401.9
aF401.9
aF402.0
aF402.1
aF403.3
aF403.3
aF403.4
aF403.5
aF403.5
aF403.6
aF404.2
aF404.3
aF404.5
aF404.8
aF405.0
aF405.1
aF405.2
aF405.4
aF405.4
aF405.6
aF406.3
aF406.4
aF406.5
aF406.7
aF406.7
aF407.3
aF407.9
aF408.5
aF408.6
aF408.7
aF408.9
aF409.4
aF409.5
aF409.7
aF409.9
aF409.9
aF410.5
aF410.6
aF410.6
aF410.7
aF411.2
aF411.6
aF411.6
aF411.9
aF412.4
aF412.8
aF413.3
aF413.4
aF413.4
aF413.7
aF413.9
aF414.5
aF414.7
aF415.2
aF415.3
aF415.4
aF415.4
aF415.6
aF415.8
aF415.9
aF416.4
aF416.4
aF416.5
aF416.6
aF416.7
aF416.8
aF417.0
aF417.1
aF417.2
aF417.2
aF417.2
aF417.9
aF418.1
aF418.2
aF418.4
aF418.5
aF418.7
aF419.2
aF419.2
aF419.3
aF419.8
aF420.4
aF420.4
aF420.6
aF420.8
aF420.9
aF420.9
aF421.3
aF421.7
aF421.7
aF421.8
aF421.8
aF422.1
aF423.6
aF423.7
aF423.8
aF424.1
aF424.1
aF424.8
aF426.0
aF426.4
aF426.6
aF428.1
aF428.7
aF428.8
aF428.9
aF429.0
aF429.2
aF430.7
aF430.9
aF431.2
aF431.3
aF431.4
aF432.0
aF432.5
aF433.1
aF433.2
aF433.5
aF433.8
aF433.8
aF433.9
aF434.0
aF434.1
aF434.5
aF435.0
aF435.7
aF435.9
aF435.9
aF436.2
aF436.5
aF438.1
aF438.2
aF438.4
aF438.5
aF439.0
aF439.0
aF440.6
aF441.4
aF441.8
aF441.8
aF442.0
aF442.5
aF442.6
aF442.9
aF443.0
aF443.6
aF443.7
aF443.8
aF443.8
aF444.0
aF444.4
aF444.8
aF444.9
aF446.3
aF446.5
aF446.5
aF446.5
aF446.6
aF446.8
aF447.0
aF447.0
aF447.2
aF447.5
aF447.7
aF447.8
aF449.0
aF449.7
aF450.4
aF450.5
aF450.5
aF451.1
aF451.6
aF451.6
aF451.8
aF453.0
aF453.4
aF453.5
aF453.6
aF454.2
aF454.2
aF455.8
aF456.0
aF456.2
aF457.4
aF457.8
aF458.0
aF458.4
aF458.5
aF459.4
aF459.5
aF460.0
aF460.1
aF460.8
aF460.8
aF460.8
aF461.1
aF461.5
aF461.7
aF461.7
aF461.8
aF462.4
aF462.6
aF462.6
aF465.6
aF465.6
aF465.8
aF466.4
aF467.5
aF467.5
aF467.9
aF468.9
aF469.4
aF469.9
aF470.1
aF470.9
aF471.2
aF471.3
aF471.9
aF472.1
aF473.6
aF473.6
aF473.8
aF474.2
aF474.3
aF474.6
aF474.7
aF476.0
aF476.1
aF476.2
aF476.2
aF476.2
aF476.3
aF476.4
aF476.4
aF476.6
aF478.3
aF479.5
aF479.8
aF480.6
aF481.3
aF481.6
aF482.7
aF483.2
aF483.2
aF483.6
aF484.5
aF484.8
aF485.2
aF485.4
aF486.3
aF487.6
aF488.5
aF488.6
aF488.7
aF488.8
aF489.3
aF489.4
aF489.5
aF489.9
aF490.0
aF491.0
aF491.2
aF491.2
aF491.7
aF492.0
aF492.2
aF492.3
aF492.8
aF493.1
aF493.1
aF493.6
aF493.9
aF493.9
aF494.7
aF495.3
aF495.7
aF495.9
aF495.9
aF496.3
aF496.4
aF497.0
aF498.1
aF498.8
aF499.1
aF499.4
aF499.8
aF500.1
aF501.2
aF503.8
aF504.4
aF504.8
aF504.9
aF509.2
aF509.3
aF510.2
aF511.6
aF512.3
aF512.9
aF513.0
aF513.2
aF514.3
aF514.4
aF515.3
aF515.5
aF515.7
aF516.3
aF516.8
aF517.5
aF518.0
aF518.2
aF518.5
aF518.5
aF519.8
aF520.3
aF521.2
aF521.3
aF521.4
aF521.7
aF521.9
aF522.3
aF522.5
aF524.1
aF524.1
aF525.1
aF527.0
aF528.0
aF528.0
aF528.5
aF529.4
aF529.9
aF530.6
aF531.4
aF531.5
aF532.4
aF533.3
aF533.8
aF534.1
aF535.0
aF537.1
aF538.0
aF538.2
aF538.7
aF540.0
aF540.4
aF541.2
aF543.1
aF543.5
aF543.5
aF543.9
aF544.6
aF546.4
aF547.0
aF549.4
aF549.8
aF550.7
aF553.4
aF553.9
aF554.5
aF555.2
aF555.2
aF556.9
aF558.8
aF559.6
aF560.1
aF560.4
aF561.9
aF563.0
aF564.8
aF565.5
aF565.7
aF566.4
aF566.6
aF568.7
aF568.7
aF568.8
aF570.1
aF571.4
aF574.0
aF576.5
aF577.5
aF578.0
aF578.6
aF578.7
aF578.9
aF580.4
aF582.0
aF582.6
aF582.9
aF583.1
aF583.5
aF584.9
aF586.3
aF587.9
aF588.0
aF588.7
aF590.3
aF590.5
aF591.0
aF595.7
aF600.9
aF602.5
aF606.6
aF606.9
aF607.5
aF612.0
aF612.4
aF614.5
aF614.9
aF618.8
aF618.9
aF620.7
aF624.2
aF624.5
aF626.1
aF633.8
aF639.7
aF639.9
aF642.3
aF642.7
aF645.3
aF649.7
aF651.4
aF651.4
aF651.5
aF652.1
aF654.4
aF656.1
aF660.9
aF663.2
aF669.8
aF671.7
aF672.3
aF672.5
aF674.6
aF675.9
aF679.7
aF681.1
aF681.2
aF695.5
aF698.7
aF699.1
aF736.4
aF738.9
aF756.9
aF790.1
aF799.8
aF802.3
aF868.8
aF902.5
aF950.6
a.